

Microchip MPLAB XC8 Assembler V2.40 build 20220703182018 
                                                                                               Sun May  7 20:10:17 2023

Microchip MPLAB XC8 C Compiler v2.40 (Free license) build 20220703182018 Og1 
     1                           	processor	18F26K83
     2                           	fnconf	rparam,??,?,0
     3                           	pagewidth 120
     4                           	opt	flic
     5                           	psect	smallconst,global,reloc=2,class=SMALLCONST,delta=1,noexec
     6                           	psect	nvCOMRAM,global,class=COMRAM,space=1,delta=1,lowdata,noexec
     7                           	psect	cinit,global,reloc=2,class=CODE,delta=1
     8                           	psect	cstackCOMRAM,global,class=COMRAM,space=1,delta=1,lowdata,noexec
     9                           	psect	text0,global,reloc=2,class=CODE,delta=1
    10                           	psect	text1,global,reloc=2,class=CODE,delta=1
    11                           	psect	text2,global,reloc=2,class=CODE,delta=1
    12                           	psect	text3,global,reloc=2,class=CODE,delta=1
    13                           	psect	text4,global,reloc=2,class=CODE,delta=1
    14                           	psect	text5,global,reloc=2,class=CODE,delta=1
    15                           	psect	text6,global,reloc=2,class=CODE,delta=1
    16                           	psect	text7,global,reloc=2,class=CODE,delta=1
    17                           	psect	text8,global,reloc=2,class=CODE,delta=1
    18                           	psect	text9,global,reloc=2,class=CODE,delta=1
    19                           	psect	text10,global,reloc=2,class=CODE,delta=1
    20                           	psect	text11,global,reloc=2,class=CODE,delta=1
    21                           	psect	text12,global,reloc=2,class=CODE,delta=1
    22                           	psect	text13,global,reloc=2,class=CODE,delta=1
    23                           	psect	text14,global,reloc=2,class=CODE,delta=1
    24                           	psect	text15,global,reloc=2,class=CODE,delta=1
    25                           	psect	text16,global,reloc=2,class=CODE,delta=1
    26                           	psect	text17,global,reloc=2,class=CODE,delta=1
    27                           	psect	text18,global,reloc=2,class=CODE,delta=1
    28                           	psect	text19,global,reloc=2,class=CODE,delta=1
    29                           	psect	text20,global,reloc=2,class=CODE,delta=1
    30                           	psect	ivt0x8,global,reloc=2,class=CODE,delta=1,noexec,keep,optim=
    31                           	psect	intsave_regs,global,class=BIGRAM,space=1,delta=1,noexec
    32                           	psect	text21,global,reloc=2,class=CODE,delta=1
    33                           	psect	rparam,global,class=COMRAM,space=1,delta=1,noexec
    34                           	psect	idloc,global,abs,ovrld,class=IDLOC,space=5,delta=1,noexec
    35                           	psect	config,global,abs,ovrld,class=CONFIG,space=4,delta=1,noexec
    36   000000                     
    37                           ; Generated 09/02/2023 GMT
    38                           ; 
    39                           ; Copyright © 2023, Microchip Technology Inc. and its subsidiaries ("Microchip")
    40                           ; All rights reserved.
    41                           ; 
    42                           ; This software is developed by Microchip Technology Inc. and its subsidiaries ("Microch
      +                          ip").
    43                           ; 
    44                           ; Redistribution and use in source and binary forms, with or without modification, are
    45                           ; permitted provided that the following conditions are met:
    46                           ; 
    47                           ;     1. Redistributions of source code must retain the above copyright notice, this lis
      +                          t of
    48                           ;        conditions and the following disclaimer.
    49                           ; 
    50                           ;     2. Redistributions in binary form must reproduce the above copyright notice, this 
      +                          list
    51                           ;        of conditions and the following disclaimer in the documentation and/or other
    52                           ;        materials provided with the distribution. Publication is not required when
    53                           ;        this file is used in an embedded application.
    54                           ; 
    55                           ;     3. Microchip's name may not be used to endorse or promote products derived from th
      +                          is
    56                           ;        software without specific prior written permission.
    57                           ; 
    58                           ; THIS SOFTWARE IS PROVIDED BY MICROCHIP "AS IS" AND ANY EXPRESS OR IMPLIED WARRANTIES,
    59                           ; INCLUDING, BUT NOT LIMITED TO, THE IMPLIED WARRANTIES OF MERCHANTABILITY AND FITNESS F
      +                          OR
    60                           ; PURPOSE ARE DISCLAIMED.  IN NO EVENT SHALL MICROCHIP BE LIABLE FOR ANY DIRECT, INDIREC
      +                          T,
    61                           ; INCIDENTAL, SPECIAL, EXEMPLARY, OR CONSEQUENTIAL DAMAGES (INCLUDING BUT NOT LIMITED TO
    62                           ; PROCUREMENT OF SUBSTITUTE GOODS OR SERVICES; LOSS OF USE, DATA OR PROFITS; OR BUSINESS
    63                           ; INTERRUPTION) HOWSOEVER CAUSED AND ON ANY THEORY OF LIABILITY, WHETHER IN CONTRACT, ST
      +                          RICT
    64                           ; LIABILITY, OR TORT (INCLUDING NEGLIGENCE OR OTHERWISE) ARISING IN ANY WAY OUT OF THE U
      +                          SE OF
    65                           ; THIS SOFTWARE, EVEN IF ADVISED OF THE POSSIBILITY OF SUCH DAMAGE.
    66                           ; 
    67                           ; 
    68                           ; Code-generator required, PIC18F26K83 Definitions
    69                           ; 
    70                           ; SFR Addresses
    71   000000                     
    72                           	psect	smallconst
    73   001000                     __psmallconst:
    74                           	callstack 0
    75   001000  00                 	db	0
    76   001001                     _spi1_configuration:
    77                           	callstack 0
    78   001001  00                 	db	0
    79   001002  04                 	db	4
    80   001003  03                 	db	3
    81   001004  01                 	db	1
    82   001005  01                 	db	1
    83   001006  00                 	db	0
    84   001007  40                 	db	64
    85   001008  04                 	db	4
    86   001009  00                 	db	0
    87   00100A  01                 	db	1
    88   00100B                     __end_of_spi1_configuration:
    89                           	callstack 0
    90   00100B  0003               	dw	3
    91   00100D  0000               	dw	0
    92   00100F                     __end_of_canId:
    93                           	callstack 0
    94   000000                     _SPI1SDIPPS	set	15073
    95   000000                     _SPI1SSPPS	set	15074
    96   000000                     _IOCAPbits	set	14917
    97   000000                     _IOCANbits	set	14918
    98   000000                     _IOCAFbits	set	14919
    99   000000                     _INLVLA	set	14916
   100   000000                     _SLRCONA	set	14915
   101   000000                     _ODCONA	set	14914
   102   000000                     _WPUA	set	14913
   103   000000                     _TRISB	set	16323
   104   000000                     _OSCTUNE	set	14814
   105   000000                     _OSCFRQ	set	14815
   106   000000                     _COMSTATbits	set	16272
   107   000000                     _RXB1SIDH	set	14321
   108   000000                     _RXB1SIDL	set	14322
   109   000000                     _RXB0D7	set	16269
   110   000000                     _RXB0D6	set	16268
   111   000000                     _RXB0D5	set	16267
   112   000000                     _RXB0D4	set	16266
   113   000000                     _RXB0D3	set	16265
   114   000000                     _RXB0D2	set	16264
   115   000000                     _RXB0D1	set	16263
   116   000000                     _RXB0D0	set	16262
   117   000000                     _RXB0DLC	set	16261
   118   000000                     _RXB0SIDH	set	16257
   119   000000                     _RXB0EIDL	set	16260
   120   000000                     _RXB0EIDH	set	16259
   121   000000                     _RXB0SIDL	set	16258
   122   000000                     _TXB2SIDL	set	14274
   123   000000                     _TXB2SIDH	set	14273
   124   000000                     _TXB2EIDH	set	14275
   125   000000                     _TXB2CONbits	set	14272
   126   000000                     _TXB1SIDL	set	14290
   127   000000                     _TXB1SIDH	set	14289
   128   000000                     _TXB1EIDH	set	14291
   129   000000                     _TXB1CONbits	set	14288
   130   000000                     _TXB0SIDL	set	14306
   131   000000                     _TXB0SIDH	set	14305
   132   000000                     _TXB0EIDH	set	14307
   133   000000                     _TXB0CONbits	set	14304
   134   000000                     _PIE5bits	set	14741
   135   000000                     _PIR5bits	set	14757
   136   000000                     _RXF5SIDL	set	14261
   137   000000                     _RXF5SIDH	set	14260
   138   000000                     _RXF5EIDL	set	14263
   139   000000                     _RXF5EIDH	set	14262
   140   000000                     _RXF4SIDL	set	14257
   141   000000                     _RXF4SIDH	set	14256
   142   000000                     _RXF4EIDL	set	14259
   143   000000                     _RXF4EIDH	set	14258
   144   000000                     _RXF3SIDL	set	14253
   145   000000                     _RXF3SIDH	set	14252
   146   000000                     _RXF3EIDL	set	14255
   147   000000                     _RXF3EIDH	set	14254
   148   000000                     _RXF2SIDL	set	14249
   149   000000                     _RXF2SIDH	set	14248
   150   000000                     _RXF2EIDL	set	14251
   151   000000                     _RXF2EIDH	set	14250
   152   000000                     _RXF1SIDL	set	14245
   153   000000                     _RXF1SIDH	set	14244
   154   000000                     _RXF1EIDL	set	14247
   155   000000                     _RXF1EIDH	set	14246
   156   000000                     _RXF0SIDL	set	14241
   157   000000                     _RXF0EIDL	set	14243
   158   000000                     _RXM1SIDL	set	14269
   159   000000                     _RXM1SIDH	set	14268
   160   000000                     _RXM1EIDL	set	14271
   161   000000                     _RXM1EIDH	set	14270
   162   000000                     _RXM0SIDL	set	14265
   163   000000                     _RXM0EIDL	set	14267
   164   000000                     _ECANCON	set	16273
   165   00100F  00                 	db	0	; dummy byte at the end
   166   000000                     
   167                           	psect	nvCOMRAM
   168   00003A                     __pnvCOMRAM:
   169                           	callstack 0
   170   00003A                     _IOCAF5_InterruptHandler:
   171                           	callstack 0
   172   00003A                     	ds	2
   173   000000                     _ANSELCbits	set	14944
   174   000000                     _SPI1CON0bits	set	15636
   175   000000                     _LATCbits	set	16316
   176   000000                     _TRISC	set	16324
   177   000000                     _BRGCON1	set	14083
   178   000000                     _RXF0SIDH	set	14240
   179   000000                     _RXF0EIDH	set	14242
   180   000000                     _RXM0SIDH	set	14264
   181   000000                     _RXM0EIDH	set	14266
   182   000000                     _CIOCON	set	14080
   183   000000                     _CANSTAT	set	16270
   184   000000                     _CANCON	set	16271
   185   000000                     _LATA	set	16314
   186   000000                     _TRISCbits	set	16324
   187   000000                     _BRGCON3	set	14085
   188   000000                     _BRGCON2	set	14084
   189   000000                     _PMD0	set	14784
   190   000000                     _OSCCON1	set	14809
   191   000000                     _RXB0CONbits	set	16256
   192   000000                     _PIR0bits	set	14752
   193   000000                     _PIR2bits	set	14754
   194   000000                     _RXB1CONbits	set	14320
   195   000000                     _TXB0D7	set	14317
   196   000000                     _TXB0D6	set	14316
   197   000000                     _TXB0D5	set	14315
   198   000000                     _TXB0D4	set	14314
   199   000000                     _TXB0D3	set	14313
   200   000000                     _TXB0D2	set	14312
   201   000000                     _TXB0D1	set	14311
   202   000000                     _TXB0D0	set	14310
   203   000000                     _TXB0DLC	set	14309
   204   000000                     _TXB0EIDL	set	14308
   205   000000                     _TXB1D7	set	14301
   206   000000                     _TXB1D6	set	14300
   207   000000                     _TXB1D5	set	14299
   208   000000                     _TXB1D4	set	14298
   209   000000                     _TXB1D3	set	14297
   210   000000                     _TXB1D2	set	14296
   211   000000                     _TXB1D1	set	14295
   212   000000                     _TXB1D0	set	14294
   213   000000                     _TXB1DLC	set	14293
   214   000000                     _TXB1EIDL	set	14292
   215   000000                     _TXB2D7	set	14285
   216   000000                     _TXB2D6	set	14284
   217   000000                     _TXB2D5	set	14283
   218   000000                     _TXB2D4	set	14282
   219   000000                     _TXB2D3	set	14281
   220   000000                     _TXB2D2	set	14280
   221   000000                     _TXB2D1	set	14279
   222   000000                     _TXB2D0	set	14278
   223   000000                     _TXB2DLC	set	14277
   224   000000                     _TXB2EIDL	set	14276
   225   000000                     _PIE0bits	set	14736
   226   000000                     _RXB1D7	set	14333
   227   000000                     _RXB1D6	set	14332
   228   000000                     _RXB1D5	set	14331
   229   000000                     _RXB1D4	set	14330
   230   000000                     _RXB1D3	set	14329
   231   000000                     _RXB1D2	set	14328
   232   000000                     _RXB1D1	set	14327
   233   000000                     _RXB1D0	set	14326
   234   000000                     _RXB1DLC	set	14325
   235   000000                     _RXB1EIDL	set	14324
   236   000000                     _RXB1EIDH	set	14323
   237   000000                     _OSCCON3	set	14811
   238   000000                     _OSCEN	set	14813
   239   000000                     _RB2PPS	set	14858
   240   000000                     _ANSELA	set	14912
   241   000000                     _ANSELB	set	14928
   242   000000                     _ANSELC	set	14944
   243   000000                     _SPI1RXB	set	15632
   244   000000                     _SPI1TXB	set	15633
   245   000000                     _SPI1TCNTL	set	15634
   246   000000                     _SPI1CON0	set	15636
   247   000000                     _PMD7	set	14791
   248   000000                     _PMD6	set	14790
   249   000000                     _PMD5	set	14789
   250   000000                     _PMD4	set	14788
   251   000000                     _PMD3	set	14787
   252   000000                     _PMD2	set	14786
   253   000000                     _PMD1	set	14785
   254   000000                     _SPI1BAUD	set	15641
   255   000000                     _SPI1CLK	set	15644
   256   000000                     _SPI1CON2	set	15638
   257   000000                     _SPI1CON1	set	15637
   258   000000                     _SPI1INTEbits	set	15643
   259   000000                     _PORTAbits	set	16330
   260   000000                     _INTCON0bits	set	16338
   261   000000                     _TRISA	set	16322
   262   000000                     _LATC	set	16316
   263   000000                     _LATB	set	16315
   264   000000                     _INLVLC	set	14948
   265   000000                     _SLRCONC	set	14947
   266   000000                     _ODCONC	set	14946
   267   000000                     _WPUC	set	14945
   268   000000                     _WPUE	set	14977
   269   000000                     _INLVLB	set	14932
   270   000000                     _SLRCONB	set	14931
   271   000000                     _ODCONB	set	14930
   272   000000                     _WPUB	set	14929
   273   000000                     _INLVLE	set	14980
   274   000000                     _SPI1SCKPPS	set	15072
   275   000000                     _CANRXPPS	set	15085
   276   000000                     _RC5PPS	set	14869
   277                           
   278                           ; #config settings
   279                           
   280                           	psect	cinit
   281   001D88                     __pcinit:
   282                           	callstack 0
   283   001D88                     start_initialization:
   284                           	callstack 0
   285   001D88                     __initialization:
   286                           	callstack 0
   287                           
   288                           ;
   289                           ; Setup IVTBASE
   290                           ;
   291   001D88  0E08               	movlw	(ivt0x8_base shr 0)& (0+255)
   292   001D8A  6ED5               	movwf	213,c
   293   001D8C  0E00               	movlw	(ivt0x8_base shr (0+8))& (0+255)
   294   001D8E  6ED6               	movwf	214,c
   295   001D90  0E00               	movlw	(ivt0x8_base shr (0+16))& (0+255)
   296   001D92  6ED7               	movwf	215,c
   297   001D94                     end_of_initialization:
   298                           	callstack 0
   299   001D94                     __end_of__initialization:
   300                           	callstack 0
   301   001D94  0100               	movlb	0
   302   001D96  EF55  F00D         	goto	_main	;jump to C main() function
   303                           
   304                           	psect	cstackCOMRAM
   305   000001                     __pcstackCOMRAM:
   306                           	callstack 0
   307   000001                     SPI1_WriteByte@byte:
   308                           	callstack 0
   309                           
   310                           ; 1 bytes @ 0x0
   311   000001                     	ds	1
   312   000002                     ??_INTERRUPT_InterruptManager:
   313   000002                     
   314                           ; 1 bytes @ 0x1
   315   000002                     	ds	2
   316   000004                     ??_ECAN_Initialize:
   317   000004                     ??_SPI1_Open:
   318   000004                     ?_convertReg2ExtendedCANid:
   319                           	callstack 0
   320   000004                     ?_convertReg2StandardCANid:
   321                           	callstack 0
   322   000004                     convertReg2ExtendedCANid@tempRXBn_EIDL:
   323                           	callstack 0
   324   000004                     convertReg2StandardCANid@tempRXBn_SIDL:
   325                           	callstack 0
   326   000004                     IOCAF5_SetInterruptHandler@InterruptHandler:
   327                           	callstack 0
   328   000004                     convertCANid2Reg@tempPassedInID:
   329                           	callstack 0
   330                           
   331                           ; 4 bytes @ 0x3
   332   000004                     	ds	1
   333   000005                     convertReg2ExtendedCANid@tempRXBn_SIDH:
   334                           	callstack 0
   335   000005                     SPI1_Open@spi1UniqueConfiguration:
   336                           	callstack 0
   337                           
   338                           ; 1 bytes @ 0x4
   339   000005                     	ds	1
   340   000006                     convertReg2ExtendedCANid@tempRXBn_SIDL:
   341                           	callstack 0
   342                           
   343                           ; 1 bytes @ 0x5
   344   000006                     	ds	2
   345   000008                     ??_convertReg2ExtendedCANid:
   346   000008                     ??_convertReg2StandardCANid:
   347   000008                     convertCANid2Reg@canIdType:
   348                           	callstack 0
   349                           
   350                           ; 1 bytes @ 0x7
   351   000008                     	ds	1
   352   000009                     convertCANid2Reg@passedInEIDH:
   353                           	callstack 0
   354                           
   355                           ; 2 bytes @ 0x8
   356   000009                     	ds	1
   357   00000A                     convertReg2StandardCANid@tempRXBn_SIDH:
   358                           	callstack 0
   359                           
   360                           ; 1 bytes @ 0x9
   361   00000A                     	ds	1
   362   00000B                     convertCANid2Reg@passedInEIDL:
   363                           	callstack 0
   364   00000B                     convertReg2StandardCANid@returnValue:
   365                           	callstack 0
   366                           
   367                           ; 4 bytes @ 0xA
   368   00000B                     	ds	1
   369   00000C                     convertReg2ExtendedCANid@tempRXBn_EIDH:
   370                           	callstack 0
   371                           
   372                           ; 1 bytes @ 0xB
   373   00000C                     	ds	1
   374   00000D                     convertCANid2Reg@passedInSIDH:
   375                           	callstack 0
   376   00000D                     convertReg2ExtendedCANid@returnValue:
   377                           	callstack 0
   378                           
   379                           ; 4 bytes @ 0xC
   380   00000D                     	ds	2
   381   00000F                     convertCANid2Reg@passedInSIDL:
   382                           	callstack 0
   383   00000F                     convertReg2StandardCANid@ConvertedID:
   384                           	callstack 0
   385                           
   386                           ; 4 bytes @ 0xE
   387   00000F                     	ds	2
   388   000011                     ??_convertCANid2Reg:
   389   000011                     convertReg2ExtendedCANid@CAN_standardLo_ID_lo2bits:
   390                           	callstack 0
   391                           
   392                           ; 1 bytes @ 0x10
   393   000011                     	ds	1
   394   000012                     convertReg2ExtendedCANid@CAN_standardLo_ID_hi3bits:
   395                           	callstack 0
   396                           
   397                           ; 1 bytes @ 0x11
   398   000012                     	ds	1
   399   000013                     convertReg2ExtendedCANid@ConvertedID:
   400                           	callstack 0
   401                           
   402                           ; 4 bytes @ 0x12
   403   000013                     	ds	2
   404   000015                     convertCANid2Reg@wipSIDL:
   405                           	callstack 0
   406                           
   407                           ; 1 bytes @ 0x14
   408   000015                     	ds	1
   409   000016                     CAN_transmit@tempCanMsg:
   410                           	callstack 0
   411                           
   412                           ; 2 bytes @ 0x15
   413   000016                     	ds	1
   414   000017                     CAN_receive@tempCanMsg:
   415                           	callstack 0
   416                           
   417                           ; 2 bytes @ 0x16
   418   000017                     	ds	1
   419   000018                     CAN_transmit@tempEIDH:
   420                           	callstack 0
   421                           
   422                           ; 1 bytes @ 0x17
   423   000018                     	ds	1
   424   000019                     CAN_transmit@tempEIDL:
   425                           	callstack 0
   426   000019                     CAN_receive@returnValue:
   427                           	callstack 0
   428                           
   429                           ; 1 bytes @ 0x18
   430   000019                     	ds	1
   431   00001A                     CAN_transmit@tempSIDH:
   432                           	callstack 0
   433                           
   434                           ; 1 bytes @ 0x19
   435   00001A                     	ds	1
   436   00001B                     CAN_transmit@tempSIDL:
   437                           	callstack 0
   438                           
   439                           ; 1 bytes @ 0x1A
   440   00001B                     	ds	1
   441   00001C                     ??_main:
   442                           
   443                           ; 1 bytes @ 0x1B
   444   00001C                     	ds	2
   445   00001E                     main@SendMsg:
   446                           	callstack 0
   447                           
   448                           ; 14 bytes @ 0x1D
   449   00001E                     	ds	14
   450   00002C                     main@ReceiveMsg:
   451                           	callstack 0
   452                           
   453                           ; 14 bytes @ 0x2B
   454   00002C                     	ds	14
   455                           
   456 ;;
   457 ;;Main: autosize = 0, tempsize = 2, incstack = 0, save=0
   458 ;;
   459 ;; *************** function _main *****************
   460 ;; Defined at:
   461 ;;		line 76 in file "main.c"
   462 ;; Parameters:    Size  Location     Type
   463 ;;		None
   464 ;; Auto vars:     Size  Location     Type
   465 ;;  ReceiveMsg     14   43[COMRAM] struct .
   466 ;;  SendMsg        14   29[COMRAM] struct .
   467 ;;  spi_on          1    0        _Bool 
   468 ;; Return value:  Size  Location     Type
   469 ;;                  1    wreg      void 
   470 ;; Registers used:
   471 ;;		wreg, fsr2l, fsr2h, status,2, status,0, tblptrl, tblptrh, tblptru, prodl, prodh, cstack
   472 ;; Tracked objects:
   473 ;;		On entry : 0/0
   474 ;;		On exit  : 0/0
   475 ;;		Unchanged: 0/0
   476 ;; Data sizes:     COMRAM   BANK0   BANK1   BANK2   BANK3   BANK4   BANK5   BANK6   BANK7   BANK8   BANK9  BANK10  BANK1
      +1  BANK12  BANK13  BANK14  BANK15
   477 ;;      Params:         0       0       0       0       0       0       0       0       0       0       0       0       
      +0       0       0       0       0
   478 ;;      Locals:        28       0       0       0       0       0       0       0       0       0       0       0       
      +0       0       0       0       0
   479 ;;      Temps:          2       0       0       0       0       0       0       0       0       0       0       0       
      +0       0       0       0       0
   480 ;;      Totals:        30       0       0       0       0       0       0       0       0       0       0       0       
      +0       0       0       0       0
   481 ;;Total ram usage:       30 bytes
   482 ;; Hardware stack levels required when called: 8
   483 ;; This function calls:
   484 ;;		_CAN_receive
   485 ;;		_CAN_transmit
   486 ;;		_IOCAF5_SetInterruptHandler
   487 ;;		_SPI1_Open
   488 ;;		_SYSTEM_Initialize
   489 ;; This function is called by:
   490 ;;		Startup code after reset
   491 ;; This function uses a non-reentrant model
   492 ;;
   493                           
   494                           	psect	text0
   495   001AAA                     __ptext0:
   496                           	callstack 0
   497   001AAA                     _main:
   498                           	callstack 23
   499   001AAA                     
   500                           ;main.c: 80:     SYSTEM_Initialize();
   501   001AAA  EC86  F00E         	call	_SYSTEM_Initialize	;wreg free
   502                           
   503                           ;main.c: 81:     IOCAF5_SetInterruptHandler(SS_InterruptHandler);
   504   001AAE  0E40               	movlw	low _SS_InterruptHandler
   505   001AB0  6E04               	movwf	IOCAF5_SetInterruptHandler@InterruptHandler^0,c
   506   001AB2  0E1D               	movlw	high _SS_InterruptHandler
   507   001AB4  6E05               	movwf	(IOCAF5_SetInterruptHandler@InterruptHandler+1)^0,c
   508   001AB6  ECCD  F00E         	call	_IOCAF5_SetInterruptHandler	;wreg free
   509   001ABA                     
   510                           ;main.c: 92:     SPI1INTEbits.RXOIE = 1;
   511   001ABA  013D               	movlb	61	; () banked
   512   001ABC  851B               	bsf	27,2,b	;volatile
   513   001ABE                     
   514                           ; BSR set to: 61
   515                           ;main.c: 96:     uCAN_MSG ReceiveMsg;;main.c: 97:     uCAN_MSG SendMsg;;main.c: 98:     
      +                          SendMsg.frame.idType = 1;
   516   001ABE  0E01               	movlw	1
   517   001AC0  6E1E               	movwf	main@SendMsg^0,c
   518   001AC2                     
   519                           ; BSR set to: 61
   520                           ;main.c: 99:     SendMsg.frame.id = canId;
   521   001AC2  0E03               	movlw	3
   522   001AC4  6E1F               	movwf	(main@SendMsg+1)^0,c
   523   001AC6  0E00               	movlw	0
   524   001AC8  6E20               	movwf	(main@SendMsg+2)^0,c
   525   001ACA  0E00               	movlw	0
   526   001ACC  6E21               	movwf	(main@SendMsg+3)^0,c
   527   001ACE  0E00               	movlw	0
   528   001AD0  6E22               	movwf	(main@SendMsg+4)^0,c
   529   001AD2                     
   530                           ; BSR set to: 61
   531                           ;main.c: 100:     SendMsg.frame.dlc = 1;
   532   001AD2  0E01               	movlw	1
   533   001AD4  6E23               	movwf	(main@SendMsg+5)^0,c
   534   001AD6                     
   535                           ; BSR set to: 61
   536                           ;main.c: 101:     SendMsg.frame.data0 = 0x33;
   537   001AD6  0E33               	movlw	51
   538   001AD8  6E24               	movwf	(main@SendMsg+6)^0,c
   539   001ADA                     
   540                           ; BSR set to: 61
   541                           ;main.c: 111:     PIR5bits.TXB0IF = 0;
   542   001ADA  0139               	movlb	57	; () banked
   543   001ADC  95A5               	bcf	165,2,b	;volatile
   544   001ADE                     
   545                           ; BSR set to: 57
   546                           ;main.c: 112:     PIR5bits.TXB1IF = 0;
   547   001ADE  97A5               	bcf	165,3,b	;volatile
   548   001AE0                     
   549                           ; BSR set to: 57
   550                           ;main.c: 113:     PIR5bits.TXB2IF = 0;
   551   001AE0  99A5               	bcf	165,4,b	;volatile
   552   001AE2                     
   553                           ; BSR set to: 57
   554                           ;main.c: 115:     CAN_transmit(&SendMsg);
   555   001AE2  0E1E               	movlw	low main@SendMsg
   556   001AE4  6E16               	movwf	CAN_transmit@tempCanMsg^0,c
   557   001AE6  0E00               	movlw	high main@SendMsg
   558   001AE8  6E17               	movwf	(CAN_transmit@tempCanMsg+1)^0,c
   559   001AEA  EC08  F008         	call	_CAN_transmit	;wreg free
   560   001AEE                     l2053:
   561                           
   562                           ;main.c: 134:     {;main.c: 142:         if(CAN_receive(&ReceiveMsg)){
   563   001AEE  0E2C               	movlw	low main@ReceiveMsg
   564   001AF0  6E17               	movwf	CAN_receive@tempCanMsg^0,c
   565   001AF2  0E00               	movlw	high main@ReceiveMsg
   566   001AF4  6E18               	movwf	(CAN_receive@tempCanMsg+1)^0,c
   567   001AF6  ECB3  F009         	call	_CAN_receive	;wreg free
   568   001AFA  0900               	iorlw	0
   569   001AFC  B4D8               	btfsc	status,2,c
   570   001AFE  EF83  F00D         	goto	u471
   571   001B02  EF85  F00D         	goto	u470
   572   001B06                     u471:
   573   001B06  EF77  F00D         	goto	l2053
   574   001B0A                     u470:
   575   001B0A                     
   576                           ;main.c: 143:            LATCbits.LC2 = 1;
   577   001B0A  84BC               	bsf	188,2,c	;volatile
   578   001B0C                     
   579                           ;main.c: 144:            _delay((unsigned long)((1000)*(16000000/4000.0)));
   580   001B0C  0E15               	movlw	21
   581   001B0E  6E1D               	movwf	(??_main+1)^0,c
   582   001B10  0E4B               	movlw	75
   583   001B12  6E1C               	movwf	??_main^0,c
   584   001B14  0EBE               	movlw	190
   585   001B16                     u497:
   586   001B16  2EE8               	decfsz	wreg,f,c
   587   001B18  D7FE               	bra	u497
   588   001B1A  2E1C               	decfsz	??_main^0,f,c
   589   001B1C  D7FC               	bra	u497
   590   001B1E  2E1D               	decfsz	(??_main+1)^0,f,c
   591   001B20  D7FA               	bra	u497
   592   001B22  D000               	nop2	
   593   001B24                     
   594                           ;main.c: 145:            LATCbits.LC2 = 0;
   595   001B24  94BC               	bcf	188,2,c	;volatile
   596                           
   597                           ;main.c: 146:            _delay((unsigned long)((1000)*(16000000/4000.0)));
   598   001B26  0E15               	movlw	21
   599   001B28  6E1D               	movwf	(??_main+1)^0,c
   600   001B2A  0E4B               	movlw	75
   601   001B2C  6E1C               	movwf	??_main^0,c
   602   001B2E  0EBE               	movlw	190
   603   001B30                     u507:
   604   001B30  2EE8               	decfsz	wreg,f,c
   605   001B32  D7FE               	bra	u507
   606   001B34  2E1C               	decfsz	??_main^0,f,c
   607   001B36  D7FC               	bra	u507
   608   001B38  2E1D               	decfsz	(??_main+1)^0,f,c
   609   001B3A  D7FA               	bra	u507
   610   001B3C  D000               	nop2	
   611   001B3E                     
   612                           ;main.c: 150:            if(ReceiveMsg.frame.data0 == 0x33){
   613   001B3E  0E33               	movlw	51
   614   001B40  1832               	xorwf	(main@ReceiveMsg+6)^0,w,c
   615   001B42  A4D8               	btfss	status,2,c
   616   001B44  EFA6  F00D         	goto	u481
   617   001B48  EFA8  F00D         	goto	u480
   618   001B4C                     u481:
   619   001B4C  EF77  F00D         	goto	l2053
   620   001B50                     u480:
   621   001B50                     
   622                           ;main.c: 153:                 SPI1_Open(SLAVE0_CONFIG);
   623   001B50  0E00               	movlw	0
   624   001B52  ECE7  F00C         	call	_SPI1_Open
   625   001B56                     
   626                           ;main.c: 154:                 LATCbits.LC2 = 1;
   627   001B56  84BC               	bsf	188,2,c	;volatile
   628   001B58                     
   629                           ;main.c: 155:                 _delay((unsigned long)((1000)*(16000000/4000.0)));
   630   001B58  0E15               	movlw	21
   631   001B5A  6E1D               	movwf	(??_main+1)^0,c
   632   001B5C  0E4B               	movlw	75
   633   001B5E  6E1C               	movwf	??_main^0,c
   634   001B60  0EBE               	movlw	190
   635   001B62                     u517:
   636   001B62  2EE8               	decfsz	wreg,f,c
   637   001B64  D7FE               	bra	u517
   638   001B66  2E1C               	decfsz	??_main^0,f,c
   639   001B68  D7FC               	bra	u517
   640   001B6A  2E1D               	decfsz	(??_main+1)^0,f,c
   641   001B6C  D7FA               	bra	u517
   642   001B6E  D000               	nop2	
   643   001B70                     
   644                           ;main.c: 156:                 LATCbits.LC2 = 0;
   645   001B70  94BC               	bcf	188,2,c	;volatile
   646   001B72  EF77  F00D         	goto	l2053
   647   001B76  EF0D  F000         	goto	start
   648   001B7A                     __end_of_main:
   649                           	callstack 0
   650                           
   651 ;; *************** function _SYSTEM_Initialize *****************
   652 ;; Defined at:
   653 ;;		line 50 in file "mcc_generated_files/mcc.c"
   654 ;; Parameters:    Size  Location     Type
   655 ;;		None
   656 ;; Auto vars:     Size  Location     Type
   657 ;;		None
   658 ;; Return value:  Size  Location     Type
   659 ;;                  1    wreg      void 
   660 ;; Registers used:
   661 ;;		wreg, status,2, status,0, cstack
   662 ;; Tracked objects:
   663 ;;		On entry : 0/0
   664 ;;		On exit  : 0/0
   665 ;;		Unchanged: 0/0
   666 ;; Data sizes:     COMRAM   BANK0   BANK1   BANK2   BANK3   BANK4   BANK5   BANK6   BANK7   BANK8   BANK9  BANK10  BANK1
      +1  BANK12  BANK13  BANK14  BANK15
   667 ;;      Params:         0       0       0       0       0       0       0       0       0       0       0       0       
      +0       0       0       0       0
   668 ;;      Locals:         0       0       0       0       0       0       0       0       0       0       0       0       
      +0       0       0       0       0
   669 ;;      Temps:          0       0       0       0       0       0       0       0       0       0       0       0       
      +0       0       0       0       0
   670 ;;      Totals:         0       0       0       0       0       0       0       0       0       0       0       0       
      +0       0       0       0       0
   671 ;;Total ram usage:        0 bytes
   672 ;; Hardware stack levels used: 1
   673 ;; Hardware stack levels required when called: 7
   674 ;; This function calls:
   675 ;;		_ECAN_Initialize
   676 ;;		_INTERRUPT_Initialize
   677 ;;		_OSCILLATOR_Initialize
   678 ;;		_PIN_MANAGER_Initialize
   679 ;;		_PMD_Initialize
   680 ;;		_SPI1_Initialize
   681 ;; This function is called by:
   682 ;;		_main
   683 ;; This function uses a non-reentrant model
   684 ;;
   685                           
   686                           	psect	text1
   687   001D0C                     __ptext1:
   688                           	callstack 0
   689   001D0C                     _SYSTEM_Initialize:
   690                           	callstack 23
   691   001D0C                     
   692                           ;mcc_generated_files/mcc.c: 52:     PIN_MANAGER_Initialize();
   693   001D0C  ECBD  F00D         	call	_PIN_MANAGER_Initialize	;wreg free
   694   001D10                     
   695                           ;mcc_generated_files/mcc.c: 53:     INTERRUPT_Initialize();
   696   001D10  ECD2  F00E         	call	_INTERRUPT_Initialize	;wreg free
   697   001D14                     
   698                           ;mcc_generated_files/mcc.c: 54:     PMD_Initialize();
   699   001D14  EC74  F00E         	call	_PMD_Initialize	;wreg free
   700   001D18                     
   701                           ;mcc_generated_files/mcc.c: 55:     OSCILLATOR_Initialize();
   702   001D18  ECAD  F00E         	call	_OSCILLATOR_Initialize	;wreg free
   703   001D1C                     
   704                           ;mcc_generated_files/mcc.c: 56:     SPI1_Initialize();
   705   001D1C  EC93  F00E         	call	_SPI1_Initialize	;wreg free
   706   001D20                     
   707                           ;mcc_generated_files/mcc.c: 57:     ECAN_Initialize();
   708   001D20  EC78  F00C         	call	_ECAN_Initialize	;wreg free
   709   001D24  0012               	return		;funcret
   710   001D26                     __end_of_SYSTEM_Initialize:
   711                           	callstack 0
   712                           
   713 ;; *************** function _SPI1_Initialize *****************
   714 ;; Defined at:
   715 ;;		line 65 in file "mcc_generated_files/spi1.c"
   716 ;; Parameters:    Size  Location     Type
   717 ;;		None
   718 ;; Auto vars:     Size  Location     Type
   719 ;;		None
   720 ;; Return value:  Size  Location     Type
   721 ;;                  1    wreg      void 
   722 ;; Registers used:
   723 ;;		wreg, status,2
   724 ;; Tracked objects:
   725 ;;		On entry : 0/0
   726 ;;		On exit  : 0/0
   727 ;;		Unchanged: 0/0
   728 ;; Data sizes:     COMRAM   BANK0   BANK1   BANK2   BANK3   BANK4   BANK5   BANK6   BANK7   BANK8   BANK9  BANK10  BANK1
      +1  BANK12  BANK13  BANK14  BANK15
   729 ;;      Params:         0       0       0       0       0       0       0       0       0       0       0       0       
      +0       0       0       0       0
   730 ;;      Locals:         0       0       0       0       0       0       0       0       0       0       0       0       
      +0       0       0       0       0
   731 ;;      Temps:          0       0       0       0       0       0       0       0       0       0       0       0       
      +0       0       0       0       0
   732 ;;      Totals:         0       0       0       0       0       0       0       0       0       0       0       0       
      +0       0       0       0       0
   733 ;;Total ram usage:        0 bytes
   734 ;; Hardware stack levels used: 1
   735 ;; Hardware stack levels required when called: 5
   736 ;; This function calls:
   737 ;;		Nothing
   738 ;; This function is called by:
   739 ;;		_SYSTEM_Initialize
   740 ;; This function uses a non-reentrant model
   741 ;;
   742                           
   743                           	psect	text2
   744   001D26                     __ptext2:
   745                           	callstack 0
   746   001D26                     _SPI1_Initialize:
   747                           	callstack 24
   748   001D26                     
   749                           ;mcc_generated_files/spi1.c: 68:     SPI1CON0 = 0x00;
   750   001D26  0E00               	movlw	0
   751   001D28  013D               	movlb	61	; () banked
   752   001D2A  6F14               	movwf	20,b	;volatile
   753                           
   754                           ;mcc_generated_files/spi1.c: 70:     SPI1CON1 = 0x04;
   755   001D2C  0E04               	movlw	4
   756   001D2E  6F15               	movwf	21,b	;volatile
   757                           
   758                           ;mcc_generated_files/spi1.c: 72:     SPI1CON2 = 0x03;
   759   001D30  0E03               	movlw	3
   760   001D32  6F16               	movwf	22,b	;volatile
   761                           
   762                           ;mcc_generated_files/spi1.c: 74:     SPI1CLK = 0x00;
   763   001D34  0E00               	movlw	0
   764   001D36  6F1C               	movwf	28,b	;volatile
   765                           
   766                           ;mcc_generated_files/spi1.c: 76:     SPI1BAUD = 0x01;
   767   001D38  0E01               	movlw	1
   768   001D3A  6F19               	movwf	25,b	;volatile
   769   001D3C                     
   770                           ; BSR set to: 61
   771                           ;mcc_generated_files/spi1.c: 77:     TRISCbits.TRISC3 = 1;
   772   001D3C  86C4               	bsf	196,3,c	;volatile
   773   001D3E                     
   774                           ; BSR set to: 61
   775   001D3E  0012               	return		;funcret
   776   001D40                     __end_of_SPI1_Initialize:
   777                           	callstack 0
   778                           
   779 ;; *************** function _PMD_Initialize *****************
   780 ;; Defined at:
   781 ;;		line 74 in file "mcc_generated_files/mcc.c"
   782 ;; Parameters:    Size  Location     Type
   783 ;;		None
   784 ;; Auto vars:     Size  Location     Type
   785 ;;		None
   786 ;; Return value:  Size  Location     Type
   787 ;;                  1    wreg      void 
   788 ;; Registers used:
   789 ;;		wreg, status,2
   790 ;; Tracked objects:
   791 ;;		On entry : 0/0
   792 ;;		On exit  : 0/0
   793 ;;		Unchanged: 0/0
   794 ;; Data sizes:     COMRAM   BANK0   BANK1   BANK2   BANK3   BANK4   BANK5   BANK6   BANK7   BANK8   BANK9  BANK10  BANK1
      +1  BANK12  BANK13  BANK14  BANK15
   795 ;;      Params:         0       0       0       0       0       0       0       0       0       0       0       0       
      +0       0       0       0       0
   796 ;;      Locals:         0       0       0       0       0       0       0       0       0       0       0       0       
      +0       0       0       0       0
   797 ;;      Temps:          0       0       0       0       0       0       0       0       0       0       0       0       
      +0       0       0       0       0
   798 ;;      Totals:         0       0       0       0       0       0       0       0       0       0       0       0       
      +0       0       0       0       0
   799 ;;Total ram usage:        0 bytes
   800 ;; Hardware stack levels used: 1
   801 ;; Hardware stack levels required when called: 5
   802 ;; This function calls:
   803 ;;		Nothing
   804 ;; This function is called by:
   805 ;;		_SYSTEM_Initialize
   806 ;; This function uses a non-reentrant model
   807 ;;
   808                           
   809                           	psect	text3
   810   001CE8                     __ptext3:
   811                           	callstack 0
   812   001CE8                     _PMD_Initialize:
   813                           	callstack 24
   814   001CE8                     
   815                           ;mcc_generated_files/mcc.c: 77:     PMD0 = 0x00;
   816   001CE8  0E00               	movlw	0
   817   001CEA  0139               	movlb	57	; () banked
   818   001CEC  6FC0               	movwf	192,b	;volatile
   819                           
   820                           ;mcc_generated_files/mcc.c: 79:     PMD1 = 0x00;
   821   001CEE  0E00               	movlw	0
   822   001CF0  6FC1               	movwf	193,b	;volatile
   823                           
   824                           ;mcc_generated_files/mcc.c: 81:     PMD2 = 0x00;
   825   001CF2  0E00               	movlw	0
   826   001CF4  6FC2               	movwf	194,b	;volatile
   827                           
   828                           ;mcc_generated_files/mcc.c: 83:     PMD3 = 0x00;
   829   001CF6  0E00               	movlw	0
   830   001CF8  6FC3               	movwf	195,b	;volatile
   831                           
   832                           ;mcc_generated_files/mcc.c: 85:     PMD4 = 0x00;
   833   001CFA  0E00               	movlw	0
   834   001CFC  6FC4               	movwf	196,b	;volatile
   835                           
   836                           ;mcc_generated_files/mcc.c: 87:     PMD5 = 0x00;
   837   001CFE  0E00               	movlw	0
   838   001D00  6FC5               	movwf	197,b	;volatile
   839                           
   840                           ;mcc_generated_files/mcc.c: 89:     PMD6 = 0x00;
   841   001D02  0E00               	movlw	0
   842   001D04  6FC6               	movwf	198,b	;volatile
   843                           
   844                           ;mcc_generated_files/mcc.c: 91:     PMD7 = 0x00;
   845   001D06  0E00               	movlw	0
   846   001D08  6FC7               	movwf	199,b	;volatile
   847   001D0A                     
   848                           ; BSR set to: 57
   849   001D0A  0012               	return		;funcret
   850   001D0C                     __end_of_PMD_Initialize:
   851                           	callstack 0
   852                           
   853 ;; *************** function _PIN_MANAGER_Initialize *****************
   854 ;; Defined at:
   855 ;;		line 57 in file "mcc_generated_files/pin_manager.c"
   856 ;; Parameters:    Size  Location     Type
   857 ;;		None
   858 ;; Auto vars:     Size  Location     Type
   859 ;;		None
   860 ;; Return value:  Size  Location     Type
   861 ;;                  1    wreg      void 
   862 ;; Registers used:
   863 ;;		wreg, status,2, status,0, cstack
   864 ;; Tracked objects:
   865 ;;		On entry : 0/0
   866 ;;		On exit  : 0/0
   867 ;;		Unchanged: 0/0
   868 ;; Data sizes:     COMRAM   BANK0   BANK1   BANK2   BANK3   BANK4   BANK5   BANK6   BANK7   BANK8   BANK9  BANK10  BANK1
      +1  BANK12  BANK13  BANK14  BANK15
   869 ;;      Params:         0       0       0       0       0       0       0       0       0       0       0       0       
      +0       0       0       0       0
   870 ;;      Locals:         0       0       0       0       0       0       0       0       0       0       0       0       
      +0       0       0       0       0
   871 ;;      Temps:          0       0       0       0       0       0       0       0       0       0       0       0       
      +0       0       0       0       0
   872 ;;      Totals:         0       0       0       0       0       0       0       0       0       0       0       0       
      +0       0       0       0       0
   873 ;;Total ram usage:        0 bytes
   874 ;; Hardware stack levels used: 1
   875 ;; Hardware stack levels required when called: 6
   876 ;; This function calls:
   877 ;;		_IOCAF5_SetInterruptHandler
   878 ;; This function is called by:
   879 ;;		_SYSTEM_Initialize
   880 ;; This function uses a non-reentrant model
   881 ;;
   882                           
   883                           	psect	text4
   884   001B7A                     __ptext4:
   885                           	callstack 0
   886   001B7A                     _PIN_MANAGER_Initialize:
   887                           	callstack 23
   888   001B7A                     
   889                           ;mcc_generated_files/pin_manager.c: 62:     LATA = 0x20;
   890   001B7A  0E20               	movlw	32
   891   001B7C  6EBA               	movwf	186,c	;volatile
   892                           
   893                           ;mcc_generated_files/pin_manager.c: 63:     LATB = 0x00;
   894   001B7E  0E00               	movlw	0
   895   001B80  6EBB               	movwf	187,c	;volatile
   896                           
   897                           ;mcc_generated_files/pin_manager.c: 64:     LATC = 0x00;
   898   001B82  0E00               	movlw	0
   899   001B84  6EBC               	movwf	188,c	;volatile
   900   001B86                     
   901                           ;mcc_generated_files/pin_manager.c: 69:     TRISA = 0xFF;
   902   001B86  68C2               	setf	194,c	;volatile
   903                           
   904                           ;mcc_generated_files/pin_manager.c: 70:     TRISB = 0xFB;
   905   001B88  0EFB               	movlw	251
   906   001B8A  6EC3               	movwf	195,c	;volatile
   907                           
   908                           ;mcc_generated_files/pin_manager.c: 71:     TRISC = 0xDF;
   909   001B8C  0EDF               	movlw	223
   910   001B8E  6EC4               	movwf	196,c	;volatile
   911   001B90                     
   912                           ;mcc_generated_files/pin_manager.c: 72:     TRISCbits.TRISC2 = 0;
   913   001B90  94C4               	bcf	196,2,c	;volatile
   914                           
   915                           ;mcc_generated_files/pin_manager.c: 77:     ANSELC = 0xC3;
   916   001B92  0EC3               	movlw	195
   917   001B94  013A               	movlb	58	; () banked
   918   001B96  6F60               	movwf	96,b	;volatile
   919   001B98                     
   920                           ; BSR set to: 58
   921                           ;mcc_generated_files/pin_manager.c: 78:     ANSELCbits.ANSELC2 = 0;
   922   001B98  9560               	bcf	96,2,b	;volatile
   923                           
   924                           ;mcc_generated_files/pin_manager.c: 79:     ANSELB = 0xF3;
   925   001B9A  0EF3               	movlw	243
   926   001B9C  6F50               	movwf	80,b	;volatile
   927                           
   928                           ;mcc_generated_files/pin_manager.c: 80:     ANSELA = 0xDF;
   929   001B9E  0EDF               	movlw	223
   930   001BA0  6F40               	movwf	64,b	;volatile
   931                           
   932                           ;mcc_generated_files/pin_manager.c: 85:     WPUE = 0x00;
   933   001BA2  0E00               	movlw	0
   934   001BA4  6F81               	movwf	129,b	;volatile
   935                           
   936                           ;mcc_generated_files/pin_manager.c: 86:     WPUB = 0x00;
   937   001BA6  0E00               	movlw	0
   938   001BA8  6F51               	movwf	81,b	;volatile
   939                           
   940                           ;mcc_generated_files/pin_manager.c: 87:     WPUA = 0x00;
   941   001BAA  0E00               	movlw	0
   942   001BAC  6F41               	movwf	65,b	;volatile
   943                           
   944                           ;mcc_generated_files/pin_manager.c: 88:     WPUC = 0x00;
   945   001BAE  0E00               	movlw	0
   946   001BB0  6F61               	movwf	97,b	;volatile
   947                           
   948                           ;mcc_generated_files/pin_manager.c: 93:     ODCONA = 0x00;
   949   001BB2  0E00               	movlw	0
   950   001BB4  6F42               	movwf	66,b	;volatile
   951                           
   952                           ;mcc_generated_files/pin_manager.c: 94:     ODCONB = 0x00;
   953   001BB6  0E00               	movlw	0
   954   001BB8  6F52               	movwf	82,b	;volatile
   955                           
   956                           ;mcc_generated_files/pin_manager.c: 95:     ODCONC = 0x00;
   957   001BBA  0E00               	movlw	0
   958   001BBC  6F62               	movwf	98,b	;volatile
   959   001BBE                     
   960                           ; BSR set to: 58
   961                           ;mcc_generated_files/pin_manager.c: 100:     SLRCONA = 0xFF;
   962   001BBE  6943               	setf	67,b	;volatile
   963   001BC0                     
   964                           ; BSR set to: 58
   965                           ;mcc_generated_files/pin_manager.c: 101:     SLRCONB = 0xFF;
   966   001BC0  6953               	setf	83,b	;volatile
   967   001BC2                     
   968                           ; BSR set to: 58
   969                           ;mcc_generated_files/pin_manager.c: 102:     SLRCONC = 0xFF;
   970   001BC2  6963               	setf	99,b	;volatile
   971   001BC4                     
   972                           ; BSR set to: 58
   973                           ;mcc_generated_files/pin_manager.c: 107:     INLVLA = 0xFF;
   974   001BC4  6944               	setf	68,b	;volatile
   975   001BC6                     
   976                           ; BSR set to: 58
   977                           ;mcc_generated_files/pin_manager.c: 108:     INLVLB = 0xFF;
   978   001BC6  6954               	setf	84,b	;volatile
   979   001BC8                     
   980                           ; BSR set to: 58
   981                           ;mcc_generated_files/pin_manager.c: 109:     INLVLC = 0xFF;
   982   001BC8  6964               	setf	100,b	;volatile
   983                           
   984                           ;mcc_generated_files/pin_manager.c: 110:     INLVLE = 0x08;
   985   001BCA  0E08               	movlw	8
   986   001BCC  6F84               	movwf	132,b	;volatile
   987   001BCE                     
   988                           ; BSR set to: 58
   989                           ;mcc_generated_files/pin_manager.c: 117:     IOCAFbits.IOCAF5 = 0;
   990   001BCE  9B47               	bcf	71,5,b	;volatile
   991   001BD0                     
   992                           ; BSR set to: 58
   993                           ;mcc_generated_files/pin_manager.c: 119:     IOCANbits.IOCAN5 = 1;
   994   001BD0  8B46               	bsf	70,5,b	;volatile
   995   001BD2                     
   996                           ; BSR set to: 58
   997                           ;mcc_generated_files/pin_manager.c: 121:     IOCAPbits.IOCAP5 = 1;
   998   001BD2  8B45               	bsf	69,5,b	;volatile
   999   001BD4                     
  1000                           ; BSR set to: 58
  1001                           ;mcc_generated_files/pin_manager.c: 126:     IOCAF5_SetInterruptHandler(IOCAF5_DefaultIn
      +                          terruptHandler);
  1002   001BD4  0EB8               	movlw	low _IOCAF5_DefaultInterruptHandler
  1003   001BD6  6E04               	movwf	IOCAF5_SetInterruptHandler@InterruptHandler^0,c
  1004   001BD8  0E1D               	movlw	high _IOCAF5_DefaultInterruptHandler
  1005   001BDA  6E05               	movwf	(IOCAF5_SetInterruptHandler@InterruptHandler+1)^0,c
  1006   001BDC  ECCD  F00E         	call	_IOCAF5_SetInterruptHandler	;wreg free
  1007   001BE0                     
  1008                           ;mcc_generated_files/pin_manager.c: 129:     PIE0bits.IOCIE = 1;
  1009   001BE0  0139               	movlb	57	; () banked
  1010   001BE2  8F90               	bsf	144,7,b	;volatile
  1011   001BE4                     
  1012                           ; BSR set to: 57
  1013                           ;mcc_generated_files/pin_manager.c: 132:     SPI1SCKPPS = 0x13;
  1014   001BE4  0E13               	movlw	19
  1015   001BE6  013A               	movlb	58	; () banked
  1016   001BE8  6FE0               	movwf	224,b	;volatile
  1017   001BEA                     
  1018                           ; BSR set to: 58
  1019                           ;mcc_generated_files/pin_manager.c: 133:     SPI1SSPPS = 0x05;
  1020   001BEA  0E05               	movlw	5
  1021   001BEC  6FE2               	movwf	226,b	;volatile
  1022   001BEE                     
  1023                           ; BSR set to: 58
  1024                           ;mcc_generated_files/pin_manager.c: 134:     RB2PPS = 0x33;
  1025   001BEE  0E33               	movlw	51
  1026   001BF0  6F0A               	movwf	10,b	;volatile
  1027   001BF2                     
  1028                           ; BSR set to: 58
  1029                           ;mcc_generated_files/pin_manager.c: 135:     CANRXPPS = 0x0B;
  1030   001BF2  0E0B               	movlw	11
  1031   001BF4  6FED               	movwf	237,b	;volatile
  1032   001BF6                     
  1033                           ; BSR set to: 58
  1034                           ;mcc_generated_files/pin_manager.c: 136:     RC5PPS = 0x1F;
  1035   001BF6  0E1F               	movlw	31
  1036   001BF8  6F15               	movwf	21,b	;volatile
  1037   001BFA                     
  1038                           ; BSR set to: 58
  1039                           ;mcc_generated_files/pin_manager.c: 137:     SPI1SDIPPS = 0x14;
  1040   001BFA  0E14               	movlw	20
  1041   001BFC  6FE1               	movwf	225,b	;volatile
  1042   001BFE                     
  1043                           ; BSR set to: 58
  1044   001BFE  0012               	return		;funcret
  1045   001C00                     __end_of_PIN_MANAGER_Initialize:
  1046                           	callstack 0
  1047                           
  1048 ;; *************** function _IOCAF5_SetInterruptHandler *****************
  1049 ;; Defined at:
  1050 ;;		line 167 in file "mcc_generated_files/pin_manager.c"
  1051 ;; Parameters:    Size  Location     Type
  1052 ;;  InterruptHan    2    3[COMRAM] PTR FTN()void 
  1053 ;;		 -> SS_InterruptHandler(1), IOCAF5_DefaultInterruptHandler(1), 
  1054 ;; Auto vars:     Size  Location     Type
  1055 ;;		None
  1056 ;; Return value:  Size  Location     Type
  1057 ;;                  1    wreg      void 
  1058 ;; Registers used:
  1059 ;;		wreg, status,2, status,0
  1060 ;; Tracked objects:
  1061 ;;		On entry : 0/0
  1062 ;;		On exit  : 0/0
  1063 ;;		Unchanged: 0/0
  1064 ;; Data sizes:     COMRAM   BANK0   BANK1   BANK2   BANK3   BANK4   BANK5   BANK6   BANK7   BANK8   BANK9  BANK10  BANK1
      +1  BANK12  BANK13  BANK14  BANK15
  1065 ;;      Params:         2       0       0       0       0       0       0       0       0       0       0       0       
      +0       0       0       0       0
  1066 ;;      Locals:         0       0       0       0       0       0       0       0       0       0       0       0       
      +0       0       0       0       0
  1067 ;;      Temps:          0       0       0       0       0       0       0       0       0       0       0       0       
      +0       0       0       0       0
  1068 ;;      Totals:         2       0       0       0       0       0       0       0       0       0       0       0       
      +0       0       0       0       0
  1069 ;;Total ram usage:        2 bytes
  1070 ;; Hardware stack levels used: 1
  1071 ;; Hardware stack levels required when called: 5
  1072 ;; This function calls:
  1073 ;;		Nothing
  1074 ;; This function is called by:
  1075 ;;		_PIN_MANAGER_Initialize
  1076 ;;		_main
  1077 ;; This function uses a non-reentrant model
  1078 ;;
  1079                           
  1080                           	psect	text5
  1081   001D9A                     __ptext5:
  1082                           	callstack 0
  1083   001D9A                     _IOCAF5_SetInterruptHandler:
  1084                           	callstack 23
  1085   001D9A                     
  1086                           ;mcc_generated_files/pin_manager.c: 168:     IOCAF5_InterruptHandler = InterruptHandler;
  1087   001D9A  C004  F03A         	movff	IOCAF5_SetInterruptHandler@InterruptHandler,_IOCAF5_InterruptHandler
  1088   001D9E  C005  F03B         	movff	IOCAF5_SetInterruptHandler@InterruptHandler+1,_IOCAF5_InterruptHandler+1
  1089   001DA2  0012               	return		;funcret
  1090   001DA4                     __end_of_IOCAF5_SetInterruptHandler:
  1091                           	callstack 0
  1092                           
  1093 ;; *************** function _OSCILLATOR_Initialize *****************
  1094 ;; Defined at:
  1095 ;;		line 60 in file "mcc_generated_files/mcc.c"
  1096 ;; Parameters:    Size  Location     Type
  1097 ;;		None
  1098 ;; Auto vars:     Size  Location     Type
  1099 ;;		None
  1100 ;; Return value:  Size  Location     Type
  1101 ;;                  1    wreg      void 
  1102 ;; Registers used:
  1103 ;;		wreg, status,2
  1104 ;; Tracked objects:
  1105 ;;		On entry : 0/0
  1106 ;;		On exit  : 0/0
  1107 ;;		Unchanged: 0/0
  1108 ;; Data sizes:     COMRAM   BANK0   BANK1   BANK2   BANK3   BANK4   BANK5   BANK6   BANK7   BANK8   BANK9  BANK10  BANK1
      +1  BANK12  BANK13  BANK14  BANK15
  1109 ;;      Params:         0       0       0       0       0       0       0       0       0       0       0       0       
      +0       0       0       0       0
  1110 ;;      Locals:         0       0       0       0       0       0       0       0       0       0       0       0       
      +0       0       0       0       0
  1111 ;;      Temps:          0       0       0       0       0       0       0       0       0       0       0       0       
      +0       0       0       0       0
  1112 ;;      Totals:         0       0       0       0       0       0       0       0       0       0       0       0       
      +0       0       0       0       0
  1113 ;;Total ram usage:        0 bytes
  1114 ;; Hardware stack levels used: 1
  1115 ;; Hardware stack levels required when called: 5
  1116 ;; This function calls:
  1117 ;;		Nothing
  1118 ;; This function is called by:
  1119 ;;		_SYSTEM_Initialize
  1120 ;; This function uses a non-reentrant model
  1121 ;;
  1122                           
  1123                           	psect	text6
  1124   001D5A                     __ptext6:
  1125                           	callstack 0
  1126   001D5A                     _OSCILLATOR_Initialize:
  1127                           	callstack 24
  1128   001D5A                     
  1129                           ;mcc_generated_files/mcc.c: 63:     OSCCON1 = 0x60;
  1130   001D5A  0E60               	movlw	96
  1131   001D5C  0139               	movlb	57	; () banked
  1132   001D5E  6FD9               	movwf	217,b	;volatile
  1133                           
  1134                           ;mcc_generated_files/mcc.c: 65:     OSCCON3 = 0x00;
  1135   001D60  0E00               	movlw	0
  1136   001D62  6FDB               	movwf	219,b	;volatile
  1137                           
  1138                           ;mcc_generated_files/mcc.c: 67:     OSCEN = 0x00;
  1139   001D64  0E00               	movlw	0
  1140   001D66  6FDD               	movwf	221,b	;volatile
  1141                           
  1142                           ;mcc_generated_files/mcc.c: 69:     OSCFRQ = 0x05;
  1143   001D68  0E05               	movlw	5
  1144   001D6A  6FDF               	movwf	223,b	;volatile
  1145                           
  1146                           ;mcc_generated_files/mcc.c: 71:     OSCTUNE = 0x00;
  1147   001D6C  0E00               	movlw	0
  1148   001D6E  6FDE               	movwf	222,b	;volatile
  1149   001D70                     
  1150                           ; BSR set to: 57
  1151   001D70  0012               	return		;funcret
  1152   001D72                     __end_of_OSCILLATOR_Initialize:
  1153                           	callstack 0
  1154                           
  1155 ;; *************** function _INTERRUPT_Initialize *****************
  1156 ;; Defined at:
  1157 ;;		line 52 in file "mcc_generated_files/interrupt_manager.c"
  1158 ;; Parameters:    Size  Location     Type
  1159 ;;		None
  1160 ;; Auto vars:     Size  Location     Type
  1161 ;;		None
  1162 ;; Return value:  Size  Location     Type
  1163 ;;                  1    wreg      void 
  1164 ;; Registers used:
  1165 ;;		None
  1166 ;; Tracked objects:
  1167 ;;		On entry : 0/0
  1168 ;;		On exit  : 0/0
  1169 ;;		Unchanged: 0/0
  1170 ;; Data sizes:     COMRAM   BANK0   BANK1   BANK2   BANK3   BANK4   BANK5   BANK6   BANK7   BANK8   BANK9  BANK10  BANK1
      +1  BANK12  BANK13  BANK14  BANK15
  1171 ;;      Params:         0       0       0       0       0       0       0       0       0       0       0       0       
      +0       0       0       0       0
  1172 ;;      Locals:         0       0       0       0       0       0       0       0       0       0       0       0       
      +0       0       0       0       0
  1173 ;;      Temps:          0       0       0       0       0       0       0       0       0       0       0       0       
      +0       0       0       0       0
  1174 ;;      Totals:         0       0       0       0       0       0       0       0       0       0       0       0       
      +0       0       0       0       0
  1175 ;;Total ram usage:        0 bytes
  1176 ;; Hardware stack levels used: 1
  1177 ;; Hardware stack levels required when called: 5
  1178 ;; This function calls:
  1179 ;;		Nothing
  1180 ;; This function is called by:
  1181 ;;		_SYSTEM_Initialize
  1182 ;; This function uses a non-reentrant model
  1183 ;;
  1184                           
  1185                           	psect	text7
  1186   001DA4                     __ptext7:
  1187                           	callstack 0
  1188   001DA4                     _INTERRUPT_Initialize:
  1189                           	callstack 24
  1190   001DA4                     
  1191                           ;mcc_generated_files/interrupt_manager.c: 55:     INTCON0bits.IPEN = 0;
  1192   001DA4  9AD2               	bcf	210,5,c	;volatile
  1193                           
  1194                           ;mcc_generated_files/interrupt_manager.c: 56:     PIE0bits.IOCIE = 1;
  1195   001DA6  0139               	movlb	57	; () banked
  1196   001DA8  8F90               	bsf	144,7,b	;volatile
  1197                           
  1198                           ;mcc_generated_files/interrupt_manager.c: 57:     PIR0bits.IOCIF = 0;
  1199   001DAA  9FA0               	bcf	160,7,b	;volatile
  1200   001DAC                     
  1201                           ; BSR set to: 57
  1202   001DAC  0012               	return		;funcret
  1203   001DAE                     __end_of_INTERRUPT_Initialize:
  1204                           	callstack 0
  1205                           
  1206 ;; *************** function _ECAN_Initialize *****************
  1207 ;; Defined at:
  1208 ;;		line 63 in file "mcc_generated_files/ecan.c"
  1209 ;; Parameters:    Size  Location     Type
  1210 ;;		None
  1211 ;; Auto vars:     Size  Location     Type
  1212 ;;		None
  1213 ;; Return value:  Size  Location     Type
  1214 ;;                  1    wreg      void 
  1215 ;; Registers used:
  1216 ;;		wreg, status,2, status,0
  1217 ;; Tracked objects:
  1218 ;;		On entry : 0/0
  1219 ;;		On exit  : 0/0
  1220 ;;		Unchanged: 0/0
  1221 ;; Data sizes:     COMRAM   BANK0   BANK1   BANK2   BANK3   BANK4   BANK5   BANK6   BANK7   BANK8   BANK9  BANK10  BANK1
      +1  BANK12  BANK13  BANK14  BANK15
  1222 ;;      Params:         0       0       0       0       0       0       0       0       0       0       0       0       
      +0       0       0       0       0
  1223 ;;      Locals:         0       0       0       0       0       0       0       0       0       0       0       0       
      +0       0       0       0       0
  1224 ;;      Temps:          1       0       0       0       0       0       0       0       0       0       0       0       
      +0       0       0       0       0
  1225 ;;      Totals:         1       0       0       0       0       0       0       0       0       0       0       0       
      +0       0       0       0       0
  1226 ;;Total ram usage:        1 bytes
  1227 ;; Hardware stack levels used: 1
  1228 ;; Hardware stack levels required when called: 5
  1229 ;; This function calls:
  1230 ;;		Nothing
  1231 ;; This function is called by:
  1232 ;;		_SYSTEM_Initialize
  1233 ;; This function uses a non-reentrant model
  1234 ;;
  1235                           
  1236                           	psect	text8
  1237   0018F0                     __ptext8:
  1238                           	callstack 0
  1239   0018F0                     _ECAN_Initialize:
  1240                           	callstack 24
  1241   0018F0                     
  1242                           ;mcc_generated_files/ecan.c: 65:     CANCON = 0x80;
  1243   0018F0  0E80               	movlw	128
  1244   0018F2  6E8F               	movwf	143,c	;volatile
  1245   0018F4                     l1255:
  1246   0018F4  508E               	movf	142,w,c	;volatile
  1247   0018F6  0BE0               	andlw	224
  1248   0018F8  0A80               	xorlw	128
  1249   0018FA  A4D8               	btfss	status,2,c
  1250   0018FC  EF82  F00C         	goto	u21
  1251   001900  EF84  F00C         	goto	u20
  1252   001904                     u21:
  1253   001904  EF7A  F00C         	goto	l1255
  1254   001908                     u20:
  1255   001908                     
  1256                           ;mcc_generated_files/ecan.c: 71:     ECANCON = 0x00;
  1257   001908  0E00               	movlw	0
  1258   00190A  6E91               	movwf	145,c	;volatile
  1259                           
  1260                           ;mcc_generated_files/ecan.c: 76:     CIOCON = 0x00;
  1261   00190C  0E00               	movlw	0
  1262   00190E  0137               	movlb	55	; () banked
  1263   001910  6F00               	movwf	0,b	;volatile
  1264                           
  1265                           ;mcc_generated_files/ecan.c: 89:     RXM0EIDH = 0x00;
  1266   001912  0E00               	movlw	0
  1267   001914  6FBA               	movwf	186,b	;volatile
  1268                           
  1269                           ;mcc_generated_files/ecan.c: 90:     RXM0EIDL = 0x00;
  1270   001916  0E00               	movlw	0
  1271   001918  6FBB               	movwf	187,b	;volatile
  1272                           
  1273                           ;mcc_generated_files/ecan.c: 91:     RXM0SIDH = 0x00;
  1274   00191A  0E00               	movlw	0
  1275   00191C  6FB8               	movwf	184,b	;volatile
  1276                           
  1277                           ;mcc_generated_files/ecan.c: 92:     RXM0SIDL = 0x00;
  1278   00191E  0E00               	movlw	0
  1279   001920  6FB9               	movwf	185,b	;volatile
  1280                           
  1281                           ;mcc_generated_files/ecan.c: 93:     RXM1EIDH = 0x00;
  1282   001922  0E00               	movlw	0
  1283   001924  6FBE               	movwf	190,b	;volatile
  1284                           
  1285                           ;mcc_generated_files/ecan.c: 94:     RXM1EIDL = 0x00;
  1286   001926  0E00               	movlw	0
  1287   001928  6FBF               	movwf	191,b	;volatile
  1288                           
  1289                           ;mcc_generated_files/ecan.c: 95:     RXM1SIDH = 0x00;
  1290   00192A  0E00               	movlw	0
  1291   00192C  6FBC               	movwf	188,b	;volatile
  1292                           
  1293                           ;mcc_generated_files/ecan.c: 96:     RXM1SIDL = 0x00;
  1294   00192E  0E00               	movlw	0
  1295   001930  6FBD               	movwf	189,b	;volatile
  1296                           
  1297                           ;mcc_generated_files/ecan.c: 101:     RXF0EIDH = 0x00;
  1298   001932  0E00               	movlw	0
  1299   001934  6FA2               	movwf	162,b	;volatile
  1300                           
  1301                           ;mcc_generated_files/ecan.c: 102:     RXF0EIDL = 0x00;
  1302   001936  0E00               	movlw	0
  1303   001938  6FA3               	movwf	163,b	;volatile
  1304                           
  1305                           ;mcc_generated_files/ecan.c: 103:     RXF0SIDH = 0x00;
  1306   00193A  0E00               	movlw	0
  1307   00193C  6FA0               	movwf	160,b	;volatile
  1308                           
  1309                           ;mcc_generated_files/ecan.c: 104:     RXF0SIDL = 0x00;
  1310   00193E  0E00               	movlw	0
  1311   001940  6FA1               	movwf	161,b	;volatile
  1312                           
  1313                           ;mcc_generated_files/ecan.c: 105:     RXF1EIDH = 0x00;
  1314   001942  0E00               	movlw	0
  1315   001944  6FA6               	movwf	166,b	;volatile
  1316                           
  1317                           ;mcc_generated_files/ecan.c: 106:     RXF1EIDL = 0x00;
  1318   001946  0E00               	movlw	0
  1319   001948  6FA7               	movwf	167,b	;volatile
  1320                           
  1321                           ;mcc_generated_files/ecan.c: 107:     RXF1SIDH = 0x00;
  1322   00194A  0E00               	movlw	0
  1323   00194C  6FA4               	movwf	164,b	;volatile
  1324                           
  1325                           ;mcc_generated_files/ecan.c: 108:     RXF1SIDL = 0x00;
  1326   00194E  0E00               	movlw	0
  1327   001950  6FA5               	movwf	165,b	;volatile
  1328                           
  1329                           ;mcc_generated_files/ecan.c: 109:     RXF2EIDH = 0x00;
  1330   001952  0E00               	movlw	0
  1331   001954  6FAA               	movwf	170,b	;volatile
  1332                           
  1333                           ;mcc_generated_files/ecan.c: 110:     RXF2EIDL = 0x00;
  1334   001956  0E00               	movlw	0
  1335   001958  6FAB               	movwf	171,b	;volatile
  1336                           
  1337                           ;mcc_generated_files/ecan.c: 111:     RXF2SIDH = 0x00;
  1338   00195A  0E00               	movlw	0
  1339   00195C  6FA8               	movwf	168,b	;volatile
  1340                           
  1341                           ;mcc_generated_files/ecan.c: 112:     RXF2SIDL = 0x00;
  1342   00195E  0E00               	movlw	0
  1343   001960  6FA9               	movwf	169,b	;volatile
  1344                           
  1345                           ;mcc_generated_files/ecan.c: 113:     RXF3EIDH = 0x00;
  1346   001962  0E00               	movlw	0
  1347   001964  6FAE               	movwf	174,b	;volatile
  1348                           
  1349                           ;mcc_generated_files/ecan.c: 114:     RXF3EIDL = 0x00;
  1350   001966  0E00               	movlw	0
  1351   001968  6FAF               	movwf	175,b	;volatile
  1352                           
  1353                           ;mcc_generated_files/ecan.c: 115:     RXF3SIDH = 0x00;
  1354   00196A  0E00               	movlw	0
  1355   00196C  6FAC               	movwf	172,b	;volatile
  1356                           
  1357                           ;mcc_generated_files/ecan.c: 116:     RXF3SIDL = 0x00;
  1358   00196E  0E00               	movlw	0
  1359   001970  6FAD               	movwf	173,b	;volatile
  1360                           
  1361                           ;mcc_generated_files/ecan.c: 117:     RXF4EIDH = 0x00;
  1362   001972  0E00               	movlw	0
  1363   001974  6FB2               	movwf	178,b	;volatile
  1364                           
  1365                           ;mcc_generated_files/ecan.c: 118:     RXF4EIDL = 0x00;
  1366   001976  0E00               	movlw	0
  1367   001978  6FB3               	movwf	179,b	;volatile
  1368                           
  1369                           ;mcc_generated_files/ecan.c: 119:     RXF4SIDH = 0x00;
  1370   00197A  0E00               	movlw	0
  1371   00197C  6FB0               	movwf	176,b	;volatile
  1372                           
  1373                           ;mcc_generated_files/ecan.c: 120:     RXF4SIDL = 0x00;
  1374   00197E  0E00               	movlw	0
  1375   001980  6FB1               	movwf	177,b	;volatile
  1376                           
  1377                           ;mcc_generated_files/ecan.c: 121:     RXF5EIDH = 0x00;
  1378   001982  0E00               	movlw	0
  1379   001984  6FB6               	movwf	182,b	;volatile
  1380                           
  1381                           ;mcc_generated_files/ecan.c: 122:     RXF5EIDL = 0x00;
  1382   001986  0E00               	movlw	0
  1383   001988  6FB7               	movwf	183,b	;volatile
  1384                           
  1385                           ;mcc_generated_files/ecan.c: 123:     RXF5SIDH = 0x00;
  1386   00198A  0E00               	movlw	0
  1387   00198C  6FB4               	movwf	180,b	;volatile
  1388                           
  1389                           ;mcc_generated_files/ecan.c: 124:     RXF5SIDL = 0x00;
  1390   00198E  0E00               	movlw	0
  1391   001990  6FB5               	movwf	181,b	;volatile
  1392                           
  1393                           ;mcc_generated_files/ecan.c: 139:     BRGCON1 = 0x00;
  1394   001992  0E00               	movlw	0
  1395   001994  6F03               	movwf	3,b	;volatile
  1396                           
  1397                           ;mcc_generated_files/ecan.c: 140:     BRGCON2 = 0x98;
  1398   001996  0E98               	movlw	152
  1399   001998  6F04               	movwf	4,b	;volatile
  1400                           
  1401                           ;mcc_generated_files/ecan.c: 141:     BRGCON3 = 0x01;
  1402   00199A  0E01               	movlw	1
  1403   00199C  6F05               	movwf	5,b	;volatile
  1404   00199E                     
  1405                           ; BSR set to: 55
  1406                           ;mcc_generated_files/ecan.c: 143:     PIR5bits.WAKIF = 0;
  1407   00199E  0139               	movlb	57	; () banked
  1408   0019A0  9DA5               	bcf	165,6,b	;volatile
  1409   0019A2                     
  1410                           ; BSR set to: 57
  1411                           ;mcc_generated_files/ecan.c: 144:     PIE5bits.WAKIE = 1;
  1412   0019A2  8D95               	bsf	149,6,b	;volatile
  1413   0019A4                     
  1414                           ; BSR set to: 57
  1415                           ;mcc_generated_files/ecan.c: 146:     PIE5bits.TXB0IE = 1;
  1416   0019A4  8595               	bsf	149,2,b	;volatile
  1417   0019A6                     
  1418                           ; BSR set to: 57
  1419                           ;mcc_generated_files/ecan.c: 147:     PIE5bits.TXB1IE = 1;
  1420   0019A6  8795               	bsf	149,3,b	;volatile
  1421   0019A8                     
  1422                           ; BSR set to: 57
  1423                           ;mcc_generated_files/ecan.c: 148:     PIE5bits.TXB2IE = 1;
  1424   0019A8  8995               	bsf	149,4,b	;volatile
  1425   0019AA                     
  1426                           ; BSR set to: 57
  1427                           ;mcc_generated_files/ecan.c: 150:     PIR5bits.TXB0IF = 1;
  1428   0019AA  85A5               	bsf	165,2,b	;volatile
  1429   0019AC                     
  1430                           ; BSR set to: 57
  1431                           ;mcc_generated_files/ecan.c: 151:     PIR5bits.TXB1IF = 1;
  1432   0019AC  87A5               	bsf	165,3,b	;volatile
  1433   0019AE                     
  1434                           ; BSR set to: 57
  1435                           ;mcc_generated_files/ecan.c: 152:     PIR5bits.TXB2IF = 1;
  1436   0019AE  89A5               	bsf	165,4,b	;volatile
  1437                           
  1438                           ;mcc_generated_files/ecan.c: 154:     CANCON = 0x00;
  1439   0019B0  0E00               	movlw	0
  1440   0019B2  6E8F               	movwf	143,c	;volatile
  1441   0019B4                     l1275:
  1442   0019B4  006F FE38  F004    	movff	16270,??_ECAN_Initialize	;volatile
  1443   0019BA  0EE0               	movlw	224
  1444   0019BC  1604               	andwf	??_ECAN_Initialize^0,f,c
  1445   0019BE  A4D8               	btfss	status,2,c
  1446   0019C0  EFE4  F00C         	goto	u31
  1447   0019C4  EFE6  F00C         	goto	u30
  1448   0019C8                     u31:
  1449   0019C8  EFDA  F00C         	goto	l1275
  1450   0019CC                     u30:
  1451   0019CC  0012               	return		;funcret
  1452   0019CE                     __end_of_ECAN_Initialize:
  1453                           	callstack 0
  1454                           
  1455 ;; *************** function _SPI1_Open *****************
  1456 ;; Defined at:
  1457 ;;		line 80 in file "mcc_generated_files/spi1.c"
  1458 ;; Parameters:    Size  Location     Type
  1459 ;;  spi1UniqueCo    1    wreg     enum E355
  1460 ;; Auto vars:     Size  Location     Type
  1461 ;;  spi1UniqueCo    1    4[COMRAM] enum E355
  1462 ;; Return value:  Size  Location     Type
  1463 ;;                  1    wreg      _Bool 
  1464 ;; Registers used:
  1465 ;;		wreg, status,2, status,0, tblptrl, tblptrh, tblptru, prodl, prodh
  1466 ;; Tracked objects:
  1467 ;;		On entry : 0/0
  1468 ;;		On exit  : 0/0
  1469 ;;		Unchanged: 0/0
  1470 ;; Data sizes:     COMRAM   BANK0   BANK1   BANK2   BANK3   BANK4   BANK5   BANK6   BANK7   BANK8   BANK9  BANK10  BANK1
      +1  BANK12  BANK13  BANK14  BANK15
  1471 ;;      Params:         0       0       0       0       0       0       0       0       0       0       0       0       
      +0       0       0       0       0
  1472 ;;      Locals:         1       0       0       0       0       0       0       0       0       0       0       0       
      +0       0       0       0       0
  1473 ;;      Temps:          1       0       0       0       0       0       0       0       0       0       0       0       
      +0       0       0       0       0
  1474 ;;      Totals:         2       0       0       0       0       0       0       0       0       0       0       0       
      +0       0       0       0       0
  1475 ;;Total ram usage:        2 bytes
  1476 ;; Hardware stack levels used: 1
  1477 ;; Hardware stack levels required when called: 5
  1478 ;; This function calls:
  1479 ;;		Nothing
  1480 ;; This function is called by:
  1481 ;;		_main
  1482 ;; This function uses a non-reentrant model
  1483 ;;
  1484                           
  1485                           	psect	text9
  1486   0019CE                     __ptext9:
  1487                           	callstack 0
  1488   0019CE                     _SPI1_Open:
  1489                           	callstack 25
  1490                           
  1491                           ;incstack = 0
  1492                           ;SPI1_Open@spi1UniqueConfiguration stored from wreg
  1493   0019CE  6E05               	movwf	SPI1_Open@spi1UniqueConfiguration^0,c
  1494   0019D0                     
  1495                           ;mcc_generated_files/spi1.c: 80: _Bool SPI1_Open(spi1_modes_t spi1UniqueConfiguration);m
      +                          cc_generated_files/spi1.c: 81: {;mcc_generated_files/spi1.c: 82:     if(!SPI1CON0bits.EN
      +                          )
  1496   0019D0  013D               	movlb	61	; () banked
  1497   0019D2  BF14               	btfsc	20,7,b	;volatile
  1498   0019D4  EFEE  F00C         	goto	u181
  1499   0019D8  EFF0  F00C         	goto	u180
  1500   0019DC                     u181:
  1501   0019DC  EF54  F00D         	goto	l369
  1502   0019E0                     u180:
  1503   0019E0                     
  1504                           ; BSR set to: 61
  1505                           ;mcc_generated_files/spi1.c: 83:     {;mcc_generated_files/spi1.c: 84:         SPI1CON0 
      +                          = spi1_configuration[spi1UniqueConfiguration].con0;
  1506   0019E0  5005               	movf	SPI1_Open@spi1UniqueConfiguration^0,w,c
  1507   0019E2  0D05               	mullw	5
  1508   0019E4  0E01               	movlw	low _spi1_configuration
  1509   0019E6  24F3               	addwf	243,w,c
  1510   0019E8  6EF6               	movwf	tblptrl,c
  1511   0019EA  0E10               	movlw	high _spi1_configuration
  1512   0019EC  20F4               	addwfc	244,w,c
  1513   0019EE  6EF7               	movwf	tblptrh,c
  1514   0019F0                     	if	1	;There are 3 active tblptr bytes
  1515   0019F0  6AF8               	clrf	tblptru,c
  1516   0019F2  0E00               	movlw	low (__mediumconst shr (0+16))
  1517   0019F4  22F8               	addwfc	tblptru,f,c
  1518   0019F6                     	endif
  1519   0019F6  0008               	tblrd		*
  1520   0019F8  006F FFD7 FD14     	movff	tablat,15636	;volatile
  1521                           
  1522                           ;mcc_generated_files/spi1.c: 85:         SPI1CON1 = spi1_configuration[spi1UniqueConfigu
      +                          ration].con1;
  1523   0019FE  5005               	movf	SPI1_Open@spi1UniqueConfiguration^0,w,c
  1524   001A00  0D05               	mullw	5
  1525   001A02  0E01               	movlw	1
  1526   001A04  26F3               	addwf	243,f,c
  1527   001A06  0E00               	movlw	0
  1528   001A08  22F4               	addwfc	244,f,c
  1529   001A0A  0E01               	movlw	low _spi1_configuration
  1530   001A0C  24F3               	addwf	243,w,c
  1531   001A0E  6EF6               	movwf	tblptrl,c
  1532   001A10  0E10               	movlw	high _spi1_configuration
  1533   001A12  20F4               	addwfc	244,w,c
  1534   001A14  6EF7               	movwf	tblptrh,c
  1535   001A16                     	if	1	;There are 3 active tblptr bytes
  1536   001A16  6AF8               	clrf	tblptru,c
  1537   001A18  0E00               	movlw	low (__mediumconst shr (0+16))
  1538   001A1A  22F8               	addwfc	tblptru,f,c
  1539   001A1C                     	endif
  1540   001A1C  0008               	tblrd		*
  1541   001A1E  006F FFD7 FD15     	movff	tablat,15637	;volatile
  1542                           
  1543                           ;mcc_generated_files/spi1.c: 86:         SPI1CON2 = spi1_configuration[spi1UniqueConfigu
      +                          ration].con2;
  1544   001A24  5005               	movf	SPI1_Open@spi1UniqueConfiguration^0,w,c
  1545   001A26  0D05               	mullw	5
  1546   001A28  0E02               	movlw	2
  1547   001A2A  26F3               	addwf	243,f,c
  1548   001A2C  0E00               	movlw	0
  1549   001A2E  22F4               	addwfc	244,f,c
  1550   001A30  0E01               	movlw	low _spi1_configuration
  1551   001A32  24F3               	addwf	243,w,c
  1552   001A34  6EF6               	movwf	tblptrl,c
  1553   001A36  0E10               	movlw	high _spi1_configuration
  1554   001A38  20F4               	addwfc	244,w,c
  1555   001A3A  6EF7               	movwf	tblptrh,c
  1556   001A3C                     	if	1	;There are 3 active tblptr bytes
  1557   001A3C  6AF8               	clrf	tblptru,c
  1558   001A3E  0E00               	movlw	low (__mediumconst shr (0+16))
  1559   001A40  22F8               	addwfc	tblptru,f,c
  1560   001A42                     	endif
  1561   001A42  0008               	tblrd		*
  1562   001A44  006F FFD7 FD16     	movff	tablat,15638	;volatile
  1563                           
  1564                           ;mcc_generated_files/spi1.c: 87:         SPI1BAUD = spi1_configuration[spi1UniqueConfigu
      +                          ration].baud;
  1565   001A4A  5005               	movf	SPI1_Open@spi1UniqueConfiguration^0,w,c
  1566   001A4C  0D05               	mullw	5
  1567   001A4E  0E03               	movlw	3
  1568   001A50  26F3               	addwf	243,f,c
  1569   001A52  0E00               	movlw	0
  1570   001A54  22F4               	addwfc	244,f,c
  1571   001A56  0E01               	movlw	low _spi1_configuration
  1572   001A58  24F3               	addwf	243,w,c
  1573   001A5A  6EF6               	movwf	tblptrl,c
  1574   001A5C  0E10               	movlw	high _spi1_configuration
  1575   001A5E  20F4               	addwfc	244,w,c
  1576   001A60  6EF7               	movwf	tblptrh,c
  1577   001A62                     	if	1	;There are 3 active tblptr bytes
  1578   001A62  6AF8               	clrf	tblptru,c
  1579   001A64  0E00               	movlw	low (__mediumconst shr (0+16))
  1580   001A66  22F8               	addwfc	tblptru,f,c
  1581   001A68                     	endif
  1582   001A68  0008               	tblrd		*
  1583   001A6A  006F FFD7 FD19     	movff	tablat,15641	;volatile
  1584                           
  1585                           ;mcc_generated_files/spi1.c: 88:         TRISCbits.TRISC3 = spi1_configuration[spi1Uniqu
      +                          eConfiguration].operation;
  1586   001A70  5005               	movf	SPI1_Open@spi1UniqueConfiguration^0,w,c
  1587   001A72  0D05               	mullw	5
  1588   001A74  0E04               	movlw	4
  1589   001A76  26F3               	addwf	243,f,c
  1590   001A78  0E00               	movlw	0
  1591   001A7A  22F4               	addwfc	244,f,c
  1592   001A7C  0E01               	movlw	low _spi1_configuration
  1593   001A7E  24F3               	addwf	243,w,c
  1594   001A80  6EF6               	movwf	tblptrl,c
  1595   001A82  0E10               	movlw	high _spi1_configuration
  1596   001A84  20F4               	addwfc	244,w,c
  1597   001A86  6EF7               	movwf	tblptrh,c
  1598   001A88                     	if	1	;There are 3 active tblptr bytes
  1599   001A88  6AF8               	clrf	tblptru,c
  1600   001A8A  0E00               	movlw	low (__mediumconst shr (0+16))
  1601   001A8C  22F8               	addwfc	tblptru,f,c
  1602   001A8E                     	endif
  1603   001A8E  0008               	tblrd		*
  1604   001A90  006F FFD4  F004    	movff	tablat,??_SPI1_Open
  1605   001A96  4604               	rlncf	??_SPI1_Open^0,f,c
  1606   001A98  4604               	rlncf	??_SPI1_Open^0,f,c
  1607   001A9A  4604               	rlncf	??_SPI1_Open^0,f,c
  1608   001A9C  50C4               	movf	196,w,c	;volatile
  1609   001A9E  1804               	xorwf	??_SPI1_Open^0,w,c
  1610   001AA0  0BF7               	andlw	-9
  1611   001AA2  1804               	xorwf	??_SPI1_Open^0,w,c
  1612   001AA4  6EC4               	movwf	196,c	;volatile
  1613   001AA6                     
  1614                           ; BSR set to: 61
  1615                           ;mcc_generated_files/spi1.c: 89:         SPI1CON0bits.EN = 1;
  1616   001AA6  8F14               	bsf	20,7,b	;volatile
  1617   001AA8                     l369:
  1618                           
  1619                           ; BSR set to: 61
  1620   001AA8  0012               	return		;funcret
  1621   001AAA                     __end_of_SPI1_Open:
  1622                           	callstack 0
  1623                           
  1624 ;; *************** function _CAN_transmit *****************
  1625 ;; Defined at:
  1626 ;;		line 170 in file "mcc_generated_files/ecan.c"
  1627 ;; Parameters:    Size  Location     Type
  1628 ;;  tempCanMsg      2   21[COMRAM] PTR struct .
  1629 ;;		 -> main@SendMsg(14), 
  1630 ;; Auto vars:     Size  Location     Type
  1631 ;;  tempSIDL        1   26[COMRAM] unsigned char 
  1632 ;;  tempSIDH        1   25[COMRAM] unsigned char 
  1633 ;;  tempEIDL        1   24[COMRAM] unsigned char 
  1634 ;;  tempEIDH        1   23[COMRAM] unsigned char 
  1635 ;;  returnValue     1    0        unsigned char 
  1636 ;; Return value:  Size  Location     Type
  1637 ;;                  1    wreg      unsigned char 
  1638 ;; Registers used:
  1639 ;;		wreg, fsr2l, fsr2h, status,2, status,0, cstack
  1640 ;; Tracked objects:
  1641 ;;		On entry : 0/0
  1642 ;;		On exit  : 0/0
  1643 ;;		Unchanged: 0/0
  1644 ;; Data sizes:     COMRAM   BANK0   BANK1   BANK2   BANK3   BANK4   BANK5   BANK6   BANK7   BANK8   BANK9  BANK10  BANK1
      +1  BANK12  BANK13  BANK14  BANK15
  1645 ;;      Params:         2       0       0       0       0       0       0       0       0       0       0       0       
      +0       0       0       0       0
  1646 ;;      Locals:         4       0       0       0       0       0       0       0       0       0       0       0       
      +0       0       0       0       0
  1647 ;;      Temps:          0       0       0       0       0       0       0       0       0       0       0       0       
      +0       0       0       0       0
  1648 ;;      Totals:         6       0       0       0       0       0       0       0       0       0       0       0       
      +0       0       0       0       0
  1649 ;;Total ram usage:        6 bytes
  1650 ;; Hardware stack levels used: 1
  1651 ;; Hardware stack levels required when called: 6
  1652 ;; This function calls:
  1653 ;;		_convertCANid2Reg
  1654 ;; This function is called by:
  1655 ;;		_main
  1656 ;; This function uses a non-reentrant model
  1657 ;;
  1658                           
  1659                           	psect	text10
  1660   001010                     __ptext10:
  1661                           	callstack 0
  1662   001010                     _CAN_transmit:
  1663                           	callstack 24
  1664   001010                     
  1665                           ;mcc_generated_files/ecan.c: 171:     uint8_t tempEIDH = 0;
  1666   001010  0E00               	movlw	0
  1667   001012  6E18               	movwf	CAN_transmit@tempEIDH^0,c
  1668                           
  1669                           ;mcc_generated_files/ecan.c: 172:     uint8_t tempEIDL = 0;
  1670   001014  0E00               	movlw	0
  1671   001016  6E19               	movwf	CAN_transmit@tempEIDL^0,c
  1672                           
  1673                           ;mcc_generated_files/ecan.c: 173:     uint8_t tempSIDH = 0;
  1674   001018  0E00               	movlw	0
  1675   00101A  6E1A               	movwf	CAN_transmit@tempSIDH^0,c
  1676                           
  1677                           ;mcc_generated_files/ecan.c: 174:     uint8_t tempSIDL = 0;
  1678   00101C  0E00               	movlw	0
  1679   00101E  6E1B               	movwf	CAN_transmit@tempSIDL^0,c
  1680   001020                     
  1681                           ;mcc_generated_files/ecan.c: 178:     if (TXB0CONbits.TXREQ != 1)
  1682   001020  0137               	movlb	55	; () banked
  1683   001022  B7E0               	btfsc	224,3,b	;volatile
  1684   001024  EF16  F008         	goto	u401
  1685   001028  EF18  F008         	goto	u400
  1686   00102C                     u401:
  1687   00102C  EF9C  F008         	goto	l248
  1688   001030                     u400:
  1689   001030                     
  1690                           ; BSR set to: 55
  1691                           ;mcc_generated_files/ecan.c: 179:     {;mcc_generated_files/ecan.c: 180:         convert
      +                          CANid2Reg(tempCanMsg->frame.id, tempCanMsg->frame.idType, &tempEIDH, &tempEIDL, &tempSID
      +                          H, &tempSIDL);
  1692   001030  EE20 F001          	lfsr	2,1
  1693   001034  5016               	movf	CAN_transmit@tempCanMsg^0,w,c
  1694   001036  26D9               	addwf	fsr2l,f,c
  1695   001038  5017               	movf	(CAN_transmit@tempCanMsg+1)^0,w,c
  1696   00103A  22DA               	addwfc	fsr2h,f,c
  1697   00103C  006F FF78  F004    	movff	postinc2,convertCANid2Reg@tempPassedInID
  1698   001042  006F FF78  F005    	movff	postinc2,convertCANid2Reg@tempPassedInID+1
  1699   001048  006F FF78  F006    	movff	postinc2,convertCANid2Reg@tempPassedInID+2
  1700   00104E  006F FF78  F007    	movff	postinc2,convertCANid2Reg@tempPassedInID+3
  1701   001054  0060  F05B  FFD9   	movff	CAN_transmit@tempCanMsg,fsr2l
  1702   00105A  0060  F05F  FFDA   	movff	CAN_transmit@tempCanMsg+1,fsr2h
  1703   001060  50DF               	movf	indf2,w,c
  1704   001062  6E08               	movwf	convertCANid2Reg@canIdType^0,c
  1705   001064  0E18               	movlw	low CAN_transmit@tempEIDH
  1706   001066  6E09               	movwf	convertCANid2Reg@passedInEIDH^0,c
  1707   001068  0E00               	movlw	high CAN_transmit@tempEIDH
  1708   00106A  6E0A               	movwf	(convertCANid2Reg@passedInEIDH+1)^0,c
  1709   00106C  0E19               	movlw	low CAN_transmit@tempEIDL
  1710   00106E  6E0B               	movwf	convertCANid2Reg@passedInEIDL^0,c
  1711   001070  0E00               	movlw	high CAN_transmit@tempEIDL
  1712   001072  6E0C               	movwf	(convertCANid2Reg@passedInEIDL+1)^0,c
  1713   001074  0E1A               	movlw	low CAN_transmit@tempSIDH
  1714   001076  6E0D               	movwf	convertCANid2Reg@passedInSIDH^0,c
  1715   001078  0E00               	movlw	high CAN_transmit@tempSIDH
  1716   00107A  6E0E               	movwf	(convertCANid2Reg@passedInSIDH+1)^0,c
  1717   00107C  0E1B               	movlw	low CAN_transmit@tempSIDL
  1718   00107E  6E0F               	movwf	convertCANid2Reg@passedInSIDL^0,c
  1719   001080  0E00               	movlw	high CAN_transmit@tempSIDL
  1720   001082  6E10               	movwf	(convertCANid2Reg@passedInSIDL+1)^0,c
  1721   001084  EC0F  F00B         	call	_convertCANid2Reg	;wreg free
  1722   001088                     
  1723                           ;mcc_generated_files/ecan.c: 182:         TXB0EIDH = tempEIDH;
  1724   001088  0060  F063  F7E3   	movff	CAN_transmit@tempEIDH,14307	;volatile
  1725   00108E                     
  1726                           ;mcc_generated_files/ecan.c: 183:         TXB0EIDL = tempEIDL;
  1727   00108E  0060  F067  F7E4   	movff	CAN_transmit@tempEIDL,14308	;volatile
  1728   001094                     
  1729                           ;mcc_generated_files/ecan.c: 184:         TXB0SIDH = tempSIDH;
  1730   001094  0060  F06B  F7E1   	movff	CAN_transmit@tempSIDH,14305	;volatile
  1731   00109A                     
  1732                           ;mcc_generated_files/ecan.c: 185:         TXB0SIDL = tempSIDL;
  1733   00109A  0060  F06F  F7E2   	movff	CAN_transmit@tempSIDL,14306	;volatile
  1734   0010A0                     
  1735                           ;mcc_generated_files/ecan.c: 186:         TXB0DLC = tempCanMsg->frame.dlc;
  1736   0010A0  EE20 F005          	lfsr	2,5
  1737   0010A4  5016               	movf	CAN_transmit@tempCanMsg^0,w,c
  1738   0010A6  26D9               	addwf	fsr2l,f,c
  1739   0010A8  5017               	movf	(CAN_transmit@tempCanMsg+1)^0,w,c
  1740   0010AA  22DA               	addwfc	fsr2h,f,c
  1741   0010AC  50DF               	movf	indf2,w,c
  1742   0010AE  0137               	movlb	55	; () banked
  1743   0010B0  6FE5               	movwf	229,b	;volatile
  1744   0010B2                     
  1745                           ; BSR set to: 55
  1746                           ;mcc_generated_files/ecan.c: 187:         TXB0D0 = tempCanMsg->frame.data0;
  1747   0010B2  EE20 F006          	lfsr	2,6
  1748   0010B6  5016               	movf	CAN_transmit@tempCanMsg^0,w,c
  1749   0010B8  26D9               	addwf	fsr2l,f,c
  1750   0010BA  5017               	movf	(CAN_transmit@tempCanMsg+1)^0,w,c
  1751   0010BC  22DA               	addwfc	fsr2h,f,c
  1752   0010BE  50DF               	movf	indf2,w,c
  1753   0010C0  6FE6               	movwf	230,b	;volatile
  1754   0010C2                     
  1755                           ; BSR set to: 55
  1756                           ;mcc_generated_files/ecan.c: 188:         TXB0D1 = tempCanMsg->frame.data1;
  1757   0010C2  EE20 F007          	lfsr	2,7
  1758   0010C6  5016               	movf	CAN_transmit@tempCanMsg^0,w,c
  1759   0010C8  26D9               	addwf	fsr2l,f,c
  1760   0010CA  5017               	movf	(CAN_transmit@tempCanMsg+1)^0,w,c
  1761   0010CC  22DA               	addwfc	fsr2h,f,c
  1762   0010CE  50DF               	movf	indf2,w,c
  1763   0010D0  6FE7               	movwf	231,b	;volatile
  1764   0010D2                     
  1765                           ; BSR set to: 55
  1766                           ;mcc_generated_files/ecan.c: 189:         TXB0D2 = tempCanMsg->frame.data2;
  1767   0010D2  EE20 F008          	lfsr	2,8
  1768   0010D6  5016               	movf	CAN_transmit@tempCanMsg^0,w,c
  1769   0010D8  26D9               	addwf	fsr2l,f,c
  1770   0010DA  5017               	movf	(CAN_transmit@tempCanMsg+1)^0,w,c
  1771   0010DC  22DA               	addwfc	fsr2h,f,c
  1772   0010DE  50DF               	movf	indf2,w,c
  1773   0010E0  6FE8               	movwf	232,b	;volatile
  1774   0010E2                     
  1775                           ; BSR set to: 55
  1776                           ;mcc_generated_files/ecan.c: 190:         TXB0D3 = tempCanMsg->frame.data3;
  1777   0010E2  EE20 F009          	lfsr	2,9
  1778   0010E6  5016               	movf	CAN_transmit@tempCanMsg^0,w,c
  1779   0010E8  26D9               	addwf	fsr2l,f,c
  1780   0010EA  5017               	movf	(CAN_transmit@tempCanMsg+1)^0,w,c
  1781   0010EC  22DA               	addwfc	fsr2h,f,c
  1782   0010EE  50DF               	movf	indf2,w,c
  1783   0010F0  6FE9               	movwf	233,b	;volatile
  1784   0010F2                     
  1785                           ; BSR set to: 55
  1786                           ;mcc_generated_files/ecan.c: 191:         TXB0D4 = tempCanMsg->frame.data4;
  1787   0010F2  EE20 F00A          	lfsr	2,10
  1788   0010F6  5016               	movf	CAN_transmit@tempCanMsg^0,w,c
  1789   0010F8  26D9               	addwf	fsr2l,f,c
  1790   0010FA  5017               	movf	(CAN_transmit@tempCanMsg+1)^0,w,c
  1791   0010FC  22DA               	addwfc	fsr2h,f,c
  1792   0010FE  50DF               	movf	indf2,w,c
  1793   001100  6FEA               	movwf	234,b	;volatile
  1794   001102                     
  1795                           ; BSR set to: 55
  1796                           ;mcc_generated_files/ecan.c: 192:         TXB0D5 = tempCanMsg->frame.data5;
  1797   001102  EE20 F00B          	lfsr	2,11
  1798   001106  5016               	movf	CAN_transmit@tempCanMsg^0,w,c
  1799   001108  26D9               	addwf	fsr2l,f,c
  1800   00110A  5017               	movf	(CAN_transmit@tempCanMsg+1)^0,w,c
  1801   00110C  22DA               	addwfc	fsr2h,f,c
  1802   00110E  50DF               	movf	indf2,w,c
  1803   001110  6FEB               	movwf	235,b	;volatile
  1804   001112                     
  1805                           ; BSR set to: 55
  1806                           ;mcc_generated_files/ecan.c: 193:         TXB0D6 = tempCanMsg->frame.data6;
  1807   001112  EE20 F00C          	lfsr	2,12
  1808   001116  5016               	movf	CAN_transmit@tempCanMsg^0,w,c
  1809   001118  26D9               	addwf	fsr2l,f,c
  1810   00111A  5017               	movf	(CAN_transmit@tempCanMsg+1)^0,w,c
  1811   00111C  22DA               	addwfc	fsr2h,f,c
  1812   00111E  50DF               	movf	indf2,w,c
  1813   001120  6FEC               	movwf	236,b	;volatile
  1814   001122                     
  1815                           ; BSR set to: 55
  1816                           ;mcc_generated_files/ecan.c: 194:         TXB0D7 = tempCanMsg->frame.data7;
  1817   001122  EE20 F00D          	lfsr	2,13
  1818   001126  5016               	movf	CAN_transmit@tempCanMsg^0,w,c
  1819   001128  26D9               	addwf	fsr2l,f,c
  1820   00112A  5017               	movf	(CAN_transmit@tempCanMsg+1)^0,w,c
  1821   00112C  22DA               	addwfc	fsr2h,f,c
  1822   00112E  50DF               	movf	indf2,w,c
  1823   001130  6FED               	movwf	237,b	;volatile
  1824   001132                     
  1825                           ; BSR set to: 55
  1826                           ;mcc_generated_files/ecan.c: 196:         TXB0CONbits.TXREQ = 1;
  1827   001132  87E0               	bsf	224,3,b	;volatile
  1828   001134                     l1879:
  1829                           
  1830                           ; BSR set to: 55
  1831                           ;mcc_generated_files/ecan.c: 199:     }
  1832   001134  EFB2  F009         	goto	l253
  1833   001138                     l248:
  1834                           
  1835                           ; BSR set to: 55
  1836   001138  B7D0               	btfsc	208,3,b	;volatile
  1837   00113A  EFA1  F008         	goto	u411
  1838   00113E  EFA3  F008         	goto	u410
  1839   001142                     u411:
  1840   001142  EF27  F009         	goto	l250
  1841   001146                     u410:
  1842   001146                     
  1843                           ; BSR set to: 55
  1844                           ;mcc_generated_files/ecan.c: 201:     {;mcc_generated_files/ecan.c: 203:         convert
      +                          CANid2Reg(tempCanMsg->frame.id, tempCanMsg->frame.idType, &tempEIDH, &tempEIDL, &tempSID
      +                          H, &tempSIDL);
  1845   001146  EE20 F001          	lfsr	2,1
  1846   00114A  5016               	movf	CAN_transmit@tempCanMsg^0,w,c
  1847   00114C  26D9               	addwf	fsr2l,f,c
  1848   00114E  5017               	movf	(CAN_transmit@tempCanMsg+1)^0,w,c
  1849   001150  22DA               	addwfc	fsr2h,f,c
  1850   001152  006F FF78  F004    	movff	postinc2,convertCANid2Reg@tempPassedInID
  1851   001158  006F FF78  F005    	movff	postinc2,convertCANid2Reg@tempPassedInID+1
  1852   00115E  006F FF78  F006    	movff	postinc2,convertCANid2Reg@tempPassedInID+2
  1853   001164  006F FF78  F007    	movff	postinc2,convertCANid2Reg@tempPassedInID+3
  1854   00116A  0060  F05B  FFD9   	movff	CAN_transmit@tempCanMsg,fsr2l
  1855   001170  0060  F05F  FFDA   	movff	CAN_transmit@tempCanMsg+1,fsr2h
  1856   001176  50DF               	movf	indf2,w,c
  1857   001178  6E08               	movwf	convertCANid2Reg@canIdType^0,c
  1858   00117A  0E18               	movlw	low CAN_transmit@tempEIDH
  1859   00117C  6E09               	movwf	convertCANid2Reg@passedInEIDH^0,c
  1860   00117E  0E00               	movlw	high CAN_transmit@tempEIDH
  1861   001180  6E0A               	movwf	(convertCANid2Reg@passedInEIDH+1)^0,c
  1862   001182  0E19               	movlw	low CAN_transmit@tempEIDL
  1863   001184  6E0B               	movwf	convertCANid2Reg@passedInEIDL^0,c
  1864   001186  0E00               	movlw	high CAN_transmit@tempEIDL
  1865   001188  6E0C               	movwf	(convertCANid2Reg@passedInEIDL+1)^0,c
  1866   00118A  0E1A               	movlw	low CAN_transmit@tempSIDH
  1867   00118C  6E0D               	movwf	convertCANid2Reg@passedInSIDH^0,c
  1868   00118E  0E00               	movlw	high CAN_transmit@tempSIDH
  1869   001190  6E0E               	movwf	(convertCANid2Reg@passedInSIDH+1)^0,c
  1870   001192  0E1B               	movlw	low CAN_transmit@tempSIDL
  1871   001194  6E0F               	movwf	convertCANid2Reg@passedInSIDL^0,c
  1872   001196  0E00               	movlw	high CAN_transmit@tempSIDL
  1873   001198  6E10               	movwf	(convertCANid2Reg@passedInSIDL+1)^0,c
  1874   00119A  EC0F  F00B         	call	_convertCANid2Reg	;wreg free
  1875   00119E                     
  1876                           ;mcc_generated_files/ecan.c: 205:         TXB1EIDH = tempEIDH;
  1877   00119E  0060  F063  F7D3   	movff	CAN_transmit@tempEIDH,14291	;volatile
  1878   0011A4                     
  1879                           ;mcc_generated_files/ecan.c: 206:         TXB1EIDL = tempEIDL;
  1880   0011A4  0060  F067  F7D4   	movff	CAN_transmit@tempEIDL,14292	;volatile
  1881   0011AA                     
  1882                           ;mcc_generated_files/ecan.c: 207:         TXB1SIDH = tempSIDH;
  1883   0011AA  0060  F06B  F7D1   	movff	CAN_transmit@tempSIDH,14289	;volatile
  1884   0011B0                     
  1885                           ;mcc_generated_files/ecan.c: 208:         TXB1SIDL = tempSIDL;
  1886   0011B0  0060  F06F  F7D2   	movff	CAN_transmit@tempSIDL,14290	;volatile
  1887   0011B6                     
  1888                           ;mcc_generated_files/ecan.c: 209:         TXB1DLC = tempCanMsg->frame.dlc;
  1889   0011B6  EE20 F005          	lfsr	2,5
  1890   0011BA  5016               	movf	CAN_transmit@tempCanMsg^0,w,c
  1891   0011BC  26D9               	addwf	fsr2l,f,c
  1892   0011BE  5017               	movf	(CAN_transmit@tempCanMsg+1)^0,w,c
  1893   0011C0  22DA               	addwfc	fsr2h,f,c
  1894   0011C2  50DF               	movf	indf2,w,c
  1895   0011C4  0137               	movlb	55	; () banked
  1896   0011C6  6FD5               	movwf	213,b	;volatile
  1897   0011C8                     
  1898                           ; BSR set to: 55
  1899                           ;mcc_generated_files/ecan.c: 210:         TXB1D0 = tempCanMsg->frame.data0;
  1900   0011C8  EE20 F006          	lfsr	2,6
  1901   0011CC  5016               	movf	CAN_transmit@tempCanMsg^0,w,c
  1902   0011CE  26D9               	addwf	fsr2l,f,c
  1903   0011D0  5017               	movf	(CAN_transmit@tempCanMsg+1)^0,w,c
  1904   0011D2  22DA               	addwfc	fsr2h,f,c
  1905   0011D4  50DF               	movf	indf2,w,c
  1906   0011D6  6FD6               	movwf	214,b	;volatile
  1907   0011D8                     
  1908                           ; BSR set to: 55
  1909                           ;mcc_generated_files/ecan.c: 211:         TXB1D1 = tempCanMsg->frame.data1;
  1910   0011D8  EE20 F007          	lfsr	2,7
  1911   0011DC  5016               	movf	CAN_transmit@tempCanMsg^0,w,c
  1912   0011DE  26D9               	addwf	fsr2l,f,c
  1913   0011E0  5017               	movf	(CAN_transmit@tempCanMsg+1)^0,w,c
  1914   0011E2  22DA               	addwfc	fsr2h,f,c
  1915   0011E4  50DF               	movf	indf2,w,c
  1916   0011E6  6FD7               	movwf	215,b	;volatile
  1917   0011E8                     
  1918                           ; BSR set to: 55
  1919                           ;mcc_generated_files/ecan.c: 212:         TXB1D2 = tempCanMsg->frame.data2;
  1920   0011E8  EE20 F008          	lfsr	2,8
  1921   0011EC  5016               	movf	CAN_transmit@tempCanMsg^0,w,c
  1922   0011EE  26D9               	addwf	fsr2l,f,c
  1923   0011F0  5017               	movf	(CAN_transmit@tempCanMsg+1)^0,w,c
  1924   0011F2  22DA               	addwfc	fsr2h,f,c
  1925   0011F4  50DF               	movf	indf2,w,c
  1926   0011F6  6FD8               	movwf	216,b	;volatile
  1927   0011F8                     
  1928                           ; BSR set to: 55
  1929                           ;mcc_generated_files/ecan.c: 213:         TXB1D3 = tempCanMsg->frame.data3;
  1930   0011F8  EE20 F009          	lfsr	2,9
  1931   0011FC  5016               	movf	CAN_transmit@tempCanMsg^0,w,c
  1932   0011FE  26D9               	addwf	fsr2l,f,c
  1933   001200  5017               	movf	(CAN_transmit@tempCanMsg+1)^0,w,c
  1934   001202  22DA               	addwfc	fsr2h,f,c
  1935   001204  50DF               	movf	indf2,w,c
  1936   001206  6FD9               	movwf	217,b	;volatile
  1937   001208                     
  1938                           ; BSR set to: 55
  1939                           ;mcc_generated_files/ecan.c: 214:         TXB1D4 = tempCanMsg->frame.data4;
  1940   001208  EE20 F00A          	lfsr	2,10
  1941   00120C  5016               	movf	CAN_transmit@tempCanMsg^0,w,c
  1942   00120E  26D9               	addwf	fsr2l,f,c
  1943   001210  5017               	movf	(CAN_transmit@tempCanMsg+1)^0,w,c
  1944   001212  22DA               	addwfc	fsr2h,f,c
  1945   001214  50DF               	movf	indf2,w,c
  1946   001216  6FDA               	movwf	218,b	;volatile
  1947   001218                     
  1948                           ; BSR set to: 55
  1949                           ;mcc_generated_files/ecan.c: 215:         TXB1D5 = tempCanMsg->frame.data5;
  1950   001218  EE20 F00B          	lfsr	2,11
  1951   00121C  5016               	movf	CAN_transmit@tempCanMsg^0,w,c
  1952   00121E  26D9               	addwf	fsr2l,f,c
  1953   001220  5017               	movf	(CAN_transmit@tempCanMsg+1)^0,w,c
  1954   001222  22DA               	addwfc	fsr2h,f,c
  1955   001224  50DF               	movf	indf2,w,c
  1956   001226  6FDB               	movwf	219,b	;volatile
  1957   001228                     
  1958                           ; BSR set to: 55
  1959                           ;mcc_generated_files/ecan.c: 216:         TXB1D6 = tempCanMsg->frame.data6;
  1960   001228  EE20 F00C          	lfsr	2,12
  1961   00122C  5016               	movf	CAN_transmit@tempCanMsg^0,w,c
  1962   00122E  26D9               	addwf	fsr2l,f,c
  1963   001230  5017               	movf	(CAN_transmit@tempCanMsg+1)^0,w,c
  1964   001232  22DA               	addwfc	fsr2h,f,c
  1965   001234  50DF               	movf	indf2,w,c
  1966   001236  6FDC               	movwf	220,b	;volatile
  1967   001238                     
  1968                           ; BSR set to: 55
  1969                           ;mcc_generated_files/ecan.c: 217:         TXB1D7 = tempCanMsg->frame.data7;
  1970   001238  EE20 F00D          	lfsr	2,13
  1971   00123C  5016               	movf	CAN_transmit@tempCanMsg^0,w,c
  1972   00123E  26D9               	addwf	fsr2l,f,c
  1973   001240  5017               	movf	(CAN_transmit@tempCanMsg+1)^0,w,c
  1974   001242  22DA               	addwfc	fsr2h,f,c
  1975   001244  50DF               	movf	indf2,w,c
  1976   001246  6FDD               	movwf	221,b	;volatile
  1977   001248                     
  1978                           ; BSR set to: 55
  1979                           ;mcc_generated_files/ecan.c: 219:         TXB1CONbits.TXREQ = 1;
  1980   001248  87D0               	bsf	208,3,b	;volatile
  1981   00124A  EF9A  F008         	goto	l1879
  1982   00124E                     l250:
  1983                           
  1984                           ; BSR set to: 55
  1985   00124E  B7C0               	btfsc	192,3,b	;volatile
  1986   001250  EF2C  F009         	goto	u421
  1987   001254  EF2E  F009         	goto	u420
  1988   001258                     u421:
  1989   001258  EFB2  F009         	goto	l249
  1990   00125C                     u420:
  1991   00125C                     
  1992                           ; BSR set to: 55
  1993                           ;mcc_generated_files/ecan.c: 223:     {;mcc_generated_files/ecan.c: 225:         convert
      +                          CANid2Reg(tempCanMsg->frame.id, tempCanMsg->frame.idType, &tempEIDH, &tempEIDL, &tempSID
      +                          H, &tempSIDL);
  1994   00125C  EE20 F001          	lfsr	2,1
  1995   001260  5016               	movf	CAN_transmit@tempCanMsg^0,w,c
  1996   001262  26D9               	addwf	fsr2l,f,c
  1997   001264  5017               	movf	(CAN_transmit@tempCanMsg+1)^0,w,c
  1998   001266  22DA               	addwfc	fsr2h,f,c
  1999   001268  006F FF78  F004    	movff	postinc2,convertCANid2Reg@tempPassedInID
  2000   00126E  006F FF78  F005    	movff	postinc2,convertCANid2Reg@tempPassedInID+1
  2001   001274  006F FF78  F006    	movff	postinc2,convertCANid2Reg@tempPassedInID+2
  2002   00127A  006F FF78  F007    	movff	postinc2,convertCANid2Reg@tempPassedInID+3
  2003   001280  0060  F05B  FFD9   	movff	CAN_transmit@tempCanMsg,fsr2l
  2004   001286  0060  F05F  FFDA   	movff	CAN_transmit@tempCanMsg+1,fsr2h
  2005   00128C  50DF               	movf	indf2,w,c
  2006   00128E  6E08               	movwf	convertCANid2Reg@canIdType^0,c
  2007   001290  0E18               	movlw	low CAN_transmit@tempEIDH
  2008   001292  6E09               	movwf	convertCANid2Reg@passedInEIDH^0,c
  2009   001294  0E00               	movlw	high CAN_transmit@tempEIDH
  2010   001296  6E0A               	movwf	(convertCANid2Reg@passedInEIDH+1)^0,c
  2011   001298  0E19               	movlw	low CAN_transmit@tempEIDL
  2012   00129A  6E0B               	movwf	convertCANid2Reg@passedInEIDL^0,c
  2013   00129C  0E00               	movlw	high CAN_transmit@tempEIDL
  2014   00129E  6E0C               	movwf	(convertCANid2Reg@passedInEIDL+1)^0,c
  2015   0012A0  0E1A               	movlw	low CAN_transmit@tempSIDH
  2016   0012A2  6E0D               	movwf	convertCANid2Reg@passedInSIDH^0,c
  2017   0012A4  0E00               	movlw	high CAN_transmit@tempSIDH
  2018   0012A6  6E0E               	movwf	(convertCANid2Reg@passedInSIDH+1)^0,c
  2019   0012A8  0E1B               	movlw	low CAN_transmit@tempSIDL
  2020   0012AA  6E0F               	movwf	convertCANid2Reg@passedInSIDL^0,c
  2021   0012AC  0E00               	movlw	high CAN_transmit@tempSIDL
  2022   0012AE  6E10               	movwf	(convertCANid2Reg@passedInSIDL+1)^0,c
  2023   0012B0  EC0F  F00B         	call	_convertCANid2Reg	;wreg free
  2024   0012B4                     
  2025                           ;mcc_generated_files/ecan.c: 227:         TXB2EIDH = tempEIDH;
  2026   0012B4  0060  F063  F7C3   	movff	CAN_transmit@tempEIDH,14275	;volatile
  2027   0012BA                     
  2028                           ;mcc_generated_files/ecan.c: 228:         TXB2EIDL = tempEIDL;
  2029   0012BA  0060  F067  F7C4   	movff	CAN_transmit@tempEIDL,14276	;volatile
  2030   0012C0                     
  2031                           ;mcc_generated_files/ecan.c: 229:         TXB2SIDH = tempSIDH;
  2032   0012C0  0060  F06B  F7C1   	movff	CAN_transmit@tempSIDH,14273	;volatile
  2033   0012C6                     
  2034                           ;mcc_generated_files/ecan.c: 230:         TXB2SIDL = tempSIDL;
  2035   0012C6  0060  F06F  F7C2   	movff	CAN_transmit@tempSIDL,14274	;volatile
  2036   0012CC                     
  2037                           ;mcc_generated_files/ecan.c: 231:         TXB2DLC = tempCanMsg->frame.dlc;
  2038   0012CC  EE20 F005          	lfsr	2,5
  2039   0012D0  5016               	movf	CAN_transmit@tempCanMsg^0,w,c
  2040   0012D2  26D9               	addwf	fsr2l,f,c
  2041   0012D4  5017               	movf	(CAN_transmit@tempCanMsg+1)^0,w,c
  2042   0012D6  22DA               	addwfc	fsr2h,f,c
  2043   0012D8  50DF               	movf	indf2,w,c
  2044   0012DA  0137               	movlb	55	; () banked
  2045   0012DC  6FC5               	movwf	197,b	;volatile
  2046   0012DE                     
  2047                           ; BSR set to: 55
  2048                           ;mcc_generated_files/ecan.c: 232:         TXB2D0 = tempCanMsg->frame.data0;
  2049   0012DE  EE20 F006          	lfsr	2,6
  2050   0012E2  5016               	movf	CAN_transmit@tempCanMsg^0,w,c
  2051   0012E4  26D9               	addwf	fsr2l,f,c
  2052   0012E6  5017               	movf	(CAN_transmit@tempCanMsg+1)^0,w,c
  2053   0012E8  22DA               	addwfc	fsr2h,f,c
  2054   0012EA  50DF               	movf	indf2,w,c
  2055   0012EC  6FC6               	movwf	198,b	;volatile
  2056   0012EE                     
  2057                           ; BSR set to: 55
  2058                           ;mcc_generated_files/ecan.c: 233:         TXB2D1 = tempCanMsg->frame.data1;
  2059   0012EE  EE20 F007          	lfsr	2,7
  2060   0012F2  5016               	movf	CAN_transmit@tempCanMsg^0,w,c
  2061   0012F4  26D9               	addwf	fsr2l,f,c
  2062   0012F6  5017               	movf	(CAN_transmit@tempCanMsg+1)^0,w,c
  2063   0012F8  22DA               	addwfc	fsr2h,f,c
  2064   0012FA  50DF               	movf	indf2,w,c
  2065   0012FC  6FC7               	movwf	199,b	;volatile
  2066   0012FE                     
  2067                           ; BSR set to: 55
  2068                           ;mcc_generated_files/ecan.c: 234:         TXB2D2 = tempCanMsg->frame.data2;
  2069   0012FE  EE20 F008          	lfsr	2,8
  2070   001302  5016               	movf	CAN_transmit@tempCanMsg^0,w,c
  2071   001304  26D9               	addwf	fsr2l,f,c
  2072   001306  5017               	movf	(CAN_transmit@tempCanMsg+1)^0,w,c
  2073   001308  22DA               	addwfc	fsr2h,f,c
  2074   00130A  50DF               	movf	indf2,w,c
  2075   00130C  6FC8               	movwf	200,b	;volatile
  2076   00130E                     
  2077                           ; BSR set to: 55
  2078                           ;mcc_generated_files/ecan.c: 235:         TXB2D3 = tempCanMsg->frame.data3;
  2079   00130E  EE20 F009          	lfsr	2,9
  2080   001312  5016               	movf	CAN_transmit@tempCanMsg^0,w,c
  2081   001314  26D9               	addwf	fsr2l,f,c
  2082   001316  5017               	movf	(CAN_transmit@tempCanMsg+1)^0,w,c
  2083   001318  22DA               	addwfc	fsr2h,f,c
  2084   00131A  50DF               	movf	indf2,w,c
  2085   00131C  6FC9               	movwf	201,b	;volatile
  2086   00131E                     
  2087                           ; BSR set to: 55
  2088                           ;mcc_generated_files/ecan.c: 236:         TXB2D4 = tempCanMsg->frame.data4;
  2089   00131E  EE20 F00A          	lfsr	2,10
  2090   001322  5016               	movf	CAN_transmit@tempCanMsg^0,w,c
  2091   001324  26D9               	addwf	fsr2l,f,c
  2092   001326  5017               	movf	(CAN_transmit@tempCanMsg+1)^0,w,c
  2093   001328  22DA               	addwfc	fsr2h,f,c
  2094   00132A  50DF               	movf	indf2,w,c
  2095   00132C  6FCA               	movwf	202,b	;volatile
  2096   00132E                     
  2097                           ; BSR set to: 55
  2098                           ;mcc_generated_files/ecan.c: 237:         TXB2D5 = tempCanMsg->frame.data5;
  2099   00132E  EE20 F00B          	lfsr	2,11
  2100   001332  5016               	movf	CAN_transmit@tempCanMsg^0,w,c
  2101   001334  26D9               	addwf	fsr2l,f,c
  2102   001336  5017               	movf	(CAN_transmit@tempCanMsg+1)^0,w,c
  2103   001338  22DA               	addwfc	fsr2h,f,c
  2104   00133A  50DF               	movf	indf2,w,c
  2105   00133C  6FCB               	movwf	203,b	;volatile
  2106   00133E                     
  2107                           ; BSR set to: 55
  2108                           ;mcc_generated_files/ecan.c: 238:         TXB2D6 = tempCanMsg->frame.data6;
  2109   00133E  EE20 F00C          	lfsr	2,12
  2110   001342  5016               	movf	CAN_transmit@tempCanMsg^0,w,c
  2111   001344  26D9               	addwf	fsr2l,f,c
  2112   001346  5017               	movf	(CAN_transmit@tempCanMsg+1)^0,w,c
  2113   001348  22DA               	addwfc	fsr2h,f,c
  2114   00134A  50DF               	movf	indf2,w,c
  2115   00134C  6FCC               	movwf	204,b	;volatile
  2116   00134E                     
  2117                           ; BSR set to: 55
  2118                           ;mcc_generated_files/ecan.c: 239:         TXB2D7 = tempCanMsg->frame.data7;
  2119   00134E  EE20 F00D          	lfsr	2,13
  2120   001352  5016               	movf	CAN_transmit@tempCanMsg^0,w,c
  2121   001354  26D9               	addwf	fsr2l,f,c
  2122   001356  5017               	movf	(CAN_transmit@tempCanMsg+1)^0,w,c
  2123   001358  22DA               	addwfc	fsr2h,f,c
  2124   00135A  50DF               	movf	indf2,w,c
  2125   00135C  6FCD               	movwf	205,b	;volatile
  2126   00135E                     
  2127                           ; BSR set to: 55
  2128                           ;mcc_generated_files/ecan.c: 241:         TXB2CONbits.TXREQ = 1;
  2129   00135E  87C0               	bsf	192,3,b	;volatile
  2130   001360  EF9A  F008         	goto	l1879
  2131   001364                     l249:
  2132   001364                     l253:
  2133                           
  2134                           ; BSR set to: 55
  2135   001364  0012               	return		;funcret
  2136   001366                     __end_of_CAN_transmit:
  2137                           	callstack 0
  2138                           
  2139 ;; *************** function _convertCANid2Reg *****************
  2140 ;; Defined at:
  2141 ;;		line 407 in file "mcc_generated_files/ecan.c"
  2142 ;; Parameters:    Size  Location     Type
  2143 ;;  tempPassedIn    4    3[COMRAM] unsigned long 
  2144 ;;  canIdType       1    7[COMRAM] unsigned char 
  2145 ;;  passedInEIDH    2    8[COMRAM] PTR unsigned char 
  2146 ;;		 -> CAN_transmit@tempEIDH(1), 
  2147 ;;  passedInEIDL    2   10[COMRAM] PTR unsigned char 
  2148 ;;		 -> CAN_transmit@tempEIDL(1), 
  2149 ;;  passedInSIDH    2   12[COMRAM] PTR unsigned char 
  2150 ;;		 -> CAN_transmit@tempSIDH(1), 
  2151 ;;  passedInSIDL    2   14[COMRAM] PTR unsigned char 
  2152 ;;		 -> CAN_transmit@tempSIDL(1), 
  2153 ;; Auto vars:     Size  Location     Type
  2154 ;;  wipSIDL         1   20[COMRAM] unsigned char 
  2155 ;; Return value:  Size  Location     Type
  2156 ;;                  1    wreg      void 
  2157 ;; Registers used:
  2158 ;;		wreg, fsr2l, fsr2h, status,2, status,0
  2159 ;; Tracked objects:
  2160 ;;		On entry : 0/0
  2161 ;;		On exit  : 0/0
  2162 ;;		Unchanged: 0/0
  2163 ;; Data sizes:     COMRAM   BANK0   BANK1   BANK2   BANK3   BANK4   BANK5   BANK6   BANK7   BANK8   BANK9  BANK10  BANK1
      +1  BANK12  BANK13  BANK14  BANK15
  2164 ;;      Params:        13       0       0       0       0       0       0       0       0       0       0       0       
      +0       0       0       0       0
  2165 ;;      Locals:         1       0       0       0       0       0       0       0       0       0       0       0       
      +0       0       0       0       0
  2166 ;;      Temps:          4       0       0       0       0       0       0       0       0       0       0       0       
      +0       0       0       0       0
  2167 ;;      Totals:        18       0       0       0       0       0       0       0       0       0       0       0       
      +0       0       0       0       0
  2168 ;;Total ram usage:       18 bytes
  2169 ;; Hardware stack levels used: 1
  2170 ;; Hardware stack levels required when called: 5
  2171 ;; This function calls:
  2172 ;;		Nothing
  2173 ;; This function is called by:
  2174 ;;		_CAN_transmit
  2175 ;; This function uses a non-reentrant model
  2176 ;;
  2177                           
  2178                           	psect	text11
  2179   00161E                     __ptext11:
  2180                           	callstack 0
  2181   00161E                     _convertCANid2Reg:
  2182                           	callstack 24
  2183   00161E                     
  2184                           ;mcc_generated_files/ecan.c: 411:     if (canIdType == 2) {
  2185   00161E  0E02               	movlw	2
  2186   001620  1808               	xorwf	convertCANid2Reg@canIdType^0,w,c
  2187   001622  A4D8               	btfss	status,2,c
  2188   001624  EF16  F00B         	goto	u351
  2189   001628  EF18  F00B         	goto	u350
  2190   00162C                     u351:
  2191   00162C  EFA6  F00B         	goto	l1757
  2192   001630                     u350:
  2193   001630                     
  2194                           ;mcc_generated_files/ecan.c: 414:         *passedInEIDL = 0xFF & tempPassedInID;
  2195   001630  0060  F02F  FFD9   	movff	convertCANid2Reg@passedInEIDL,fsr2l
  2196   001636  0060  F033  FFDA   	movff	convertCANid2Reg@passedInEIDL+1,fsr2h
  2197   00163C  0060  F013  FFDF   	movff	convertCANid2Reg@tempPassedInID,indf2
  2198   001642                     
  2199                           ;mcc_generated_files/ecan.c: 415:         tempPassedInID = tempPassedInID >> 8;
  2200   001642  C004  F011         	movff	convertCANid2Reg@tempPassedInID,??_convertCANid2Reg
  2201   001646  C005  F012         	movff	convertCANid2Reg@tempPassedInID+1,??_convertCANid2Reg+1
  2202   00164A  C006  F013         	movff	convertCANid2Reg@tempPassedInID+2,??_convertCANid2Reg+2
  2203   00164E  C007  F014         	movff	convertCANid2Reg@tempPassedInID+3,??_convertCANid2Reg+3
  2204   001652  C012  F011         	movff	??_convertCANid2Reg+1,??_convertCANid2Reg
  2205   001656  C013  F012         	movff	??_convertCANid2Reg+2,??_convertCANid2Reg+1
  2206   00165A  C014  F013         	movff	??_convertCANid2Reg+3,??_convertCANid2Reg+2
  2207   00165E  6A14               	clrf	(??_convertCANid2Reg+3)^0,c
  2208   001660  C011  F004         	movff	??_convertCANid2Reg,convertCANid2Reg@tempPassedInID
  2209   001664  C012  F005         	movff	??_convertCANid2Reg+1,convertCANid2Reg@tempPassedInID+1
  2210   001668  C013  F006         	movff	??_convertCANid2Reg+2,convertCANid2Reg@tempPassedInID+2
  2211   00166C  C014  F007         	movff	??_convertCANid2Reg+3,convertCANid2Reg@tempPassedInID+3
  2212   001670                     
  2213                           ;mcc_generated_files/ecan.c: 418:         *passedInEIDH = 0xFF & tempPassedInID;
  2214   001670  0060  F027  FFD9   	movff	convertCANid2Reg@passedInEIDH,fsr2l
  2215   001676  0060  F02B  FFDA   	movff	convertCANid2Reg@passedInEIDH+1,fsr2h
  2216   00167C  0060  F013  FFDF   	movff	convertCANid2Reg@tempPassedInID,indf2
  2217                           
  2218                           ;mcc_generated_files/ecan.c: 419:         tempPassedInID = tempPassedInID >> 8;
  2219   001682  C004  F011         	movff	convertCANid2Reg@tempPassedInID,??_convertCANid2Reg
  2220   001686  C005  F012         	movff	convertCANid2Reg@tempPassedInID+1,??_convertCANid2Reg+1
  2221   00168A  C006  F013         	movff	convertCANid2Reg@tempPassedInID+2,??_convertCANid2Reg+2
  2222   00168E  C007  F014         	movff	convertCANid2Reg@tempPassedInID+3,??_convertCANid2Reg+3
  2223   001692  C012  F011         	movff	??_convertCANid2Reg+1,??_convertCANid2Reg
  2224   001696  C013  F012         	movff	??_convertCANid2Reg+2,??_convertCANid2Reg+1
  2225   00169A  C014  F013         	movff	??_convertCANid2Reg+3,??_convertCANid2Reg+2
  2226   00169E  6A14               	clrf	(??_convertCANid2Reg+3)^0,c
  2227   0016A0  C011  F004         	movff	??_convertCANid2Reg,convertCANid2Reg@tempPassedInID
  2228   0016A4  C012  F005         	movff	??_convertCANid2Reg+1,convertCANid2Reg@tempPassedInID+1
  2229   0016A8  C013  F006         	movff	??_convertCANid2Reg+2,convertCANid2Reg@tempPassedInID+2
  2230   0016AC  C014  F007         	movff	??_convertCANid2Reg+3,convertCANid2Reg@tempPassedInID+3
  2231   0016B0                     
  2232                           ;mcc_generated_files/ecan.c: 423:         wipSIDL = 0x03 & tempPassedInID;
  2233   0016B0  5004               	movf	convertCANid2Reg@tempPassedInID^0,w,c
  2234   0016B2  0B03               	andlw	3
  2235   0016B4  6E15               	movwf	convertCANid2Reg@wipSIDL^0,c
  2236   0016B6                     
  2237                           ;mcc_generated_files/ecan.c: 424:         tempPassedInID = tempPassedInID << 3;
  2238   0016B6  C004  F011         	movff	convertCANid2Reg@tempPassedInID,??_convertCANid2Reg
  2239   0016BA  C005  F012         	movff	convertCANid2Reg@tempPassedInID+1,??_convertCANid2Reg+1
  2240   0016BE  C006  F013         	movff	convertCANid2Reg@tempPassedInID+2,??_convertCANid2Reg+2
  2241   0016C2  C007  F014         	movff	convertCANid2Reg@tempPassedInID+3,??_convertCANid2Reg+3
  2242   0016C6  0E03               	movlw	3
  2243   0016C8                     u365:
  2244   0016C8  90D8               	bcf	status,0,c
  2245   0016CA  3611               	rlcf	??_convertCANid2Reg^0,f,c
  2246   0016CC  3612               	rlcf	(??_convertCANid2Reg+1)^0,f,c
  2247   0016CE  3613               	rlcf	(??_convertCANid2Reg+2)^0,f,c
  2248   0016D0  3614               	rlcf	(??_convertCANid2Reg+3)^0,f,c
  2249   0016D2  2EE8               	decfsz	wreg,f,c
  2250   0016D4  EF64  F00B         	goto	u365
  2251   0016D8  C011  F004         	movff	??_convertCANid2Reg,convertCANid2Reg@tempPassedInID
  2252   0016DC  C012  F005         	movff	??_convertCANid2Reg+1,convertCANid2Reg@tempPassedInID+1
  2253   0016E0  C013  F006         	movff	??_convertCANid2Reg+2,convertCANid2Reg@tempPassedInID+2
  2254   0016E4  C014  F007         	movff	??_convertCANid2Reg+3,convertCANid2Reg@tempPassedInID+3
  2255   0016E8                     
  2256                           ;mcc_generated_files/ecan.c: 425:         wipSIDL = (0xE0 & tempPassedInID) + wipSIDL;
  2257   0016E8  5004               	movf	convertCANid2Reg@tempPassedInID^0,w,c
  2258   0016EA  0BE0               	andlw	224
  2259   0016EC  2415               	addwf	convertCANid2Reg@wipSIDL^0,w,c
  2260   0016EE  6E15               	movwf	convertCANid2Reg@wipSIDL^0,c
  2261   0016F0                     
  2262                           ;mcc_generated_files/ecan.c: 426:         wipSIDL = (uint8_t)(wipSIDL + 0x08);
  2263   0016F0  5015               	movf	convertCANid2Reg@wipSIDL^0,w,c
  2264   0016F2  0F08               	addlw	8
  2265   0016F4  6E15               	movwf	convertCANid2Reg@wipSIDL^0,c
  2266   0016F6                     
  2267                           ;mcc_generated_files/ecan.c: 427:         *passedInSIDL = (uint8_t)(0xEB & wipSIDL);
  2268   0016F6  5015               	movf	convertCANid2Reg@wipSIDL^0,w,c
  2269   0016F8  0BEB               	andlw	235
  2270   0016FA  0060  F03F  FFD9   	movff	convertCANid2Reg@passedInSIDL,fsr2l
  2271   001700  0060  F043  FFDA   	movff	convertCANid2Reg@passedInSIDL+1,fsr2h
  2272   001706  6EDF               	movwf	indf2,c
  2273   001708                     l1753:
  2274                           
  2275                           ;mcc_generated_files/ecan.c: 430:         tempPassedInID = tempPassedInID >> 8;
  2276   001708  C004  F011         	movff	convertCANid2Reg@tempPassedInID,??_convertCANid2Reg
  2277   00170C  C005  F012         	movff	convertCANid2Reg@tempPassedInID+1,??_convertCANid2Reg+1
  2278   001710  C006  F013         	movff	convertCANid2Reg@tempPassedInID+2,??_convertCANid2Reg+2
  2279   001714  C007  F014         	movff	convertCANid2Reg@tempPassedInID+3,??_convertCANid2Reg+3
  2280   001718  C012  F011         	movff	??_convertCANid2Reg+1,??_convertCANid2Reg
  2281   00171C  C013  F012         	movff	??_convertCANid2Reg+2,??_convertCANid2Reg+1
  2282   001720  C014  F013         	movff	??_convertCANid2Reg+3,??_convertCANid2Reg+2
  2283   001724  6A14               	clrf	(??_convertCANid2Reg+3)^0,c
  2284   001726  C011  F004         	movff	??_convertCANid2Reg,convertCANid2Reg@tempPassedInID
  2285   00172A  C012  F005         	movff	??_convertCANid2Reg+1,convertCANid2Reg@tempPassedInID+1
  2286   00172E  C013  F006         	movff	??_convertCANid2Reg+2,convertCANid2Reg@tempPassedInID+2
  2287   001732  C014  F007         	movff	??_convertCANid2Reg+3,convertCANid2Reg@tempPassedInID+3
  2288   001736                     
  2289                           ;mcc_generated_files/ecan.c: 431:         *passedInSIDH = 0xFF & tempPassedInID;
  2290   001736  0060  F037  FFD9   	movff	convertCANid2Reg@passedInSIDH,fsr2l
  2291   00173C  0060  F03B  FFDA   	movff	convertCANid2Reg@passedInSIDH+1,fsr2h
  2292   001742  0060  F013  FFDF   	movff	convertCANid2Reg@tempPassedInID,indf2
  2293                           
  2294                           ;mcc_generated_files/ecan.c: 432:     }
  2295   001748  EFDA  F00B         	goto	l291
  2296   00174C                     l1757:
  2297                           
  2298                           ;mcc_generated_files/ecan.c: 434:     {;mcc_generated_files/ecan.c: 435:         *passed
      +                          InEIDH = 0;
  2299   00174C  0060  F027  FFD9   	movff	convertCANid2Reg@passedInEIDH,fsr2l
  2300   001752  0060  F02B  FFDA   	movff	convertCANid2Reg@passedInEIDH+1,fsr2h
  2301   001758  0E00               	movlw	0
  2302   00175A  6EDF               	movwf	indf2,c
  2303                           
  2304                           ;mcc_generated_files/ecan.c: 436:         *passedInEIDL = 0;
  2305   00175C  0060  F02F  FFD9   	movff	convertCANid2Reg@passedInEIDL,fsr2l
  2306   001762  0060  F033  FFDA   	movff	convertCANid2Reg@passedInEIDL+1,fsr2h
  2307   001768  0E00               	movlw	0
  2308   00176A  6EDF               	movwf	indf2,c
  2309   00176C                     
  2310                           ;mcc_generated_files/ecan.c: 437:         tempPassedInID = tempPassedInID << 5;
  2311   00176C  C004  F011         	movff	convertCANid2Reg@tempPassedInID,??_convertCANid2Reg
  2312   001770  C005  F012         	movff	convertCANid2Reg@tempPassedInID+1,??_convertCANid2Reg+1
  2313   001774  C006  F013         	movff	convertCANid2Reg@tempPassedInID+2,??_convertCANid2Reg+2
  2314   001778  C007  F014         	movff	convertCANid2Reg@tempPassedInID+3,??_convertCANid2Reg+3
  2315   00177C  0E05               	movlw	5
  2316   00177E                     u375:
  2317   00177E  90D8               	bcf	status,0,c
  2318   001780  3611               	rlcf	??_convertCANid2Reg^0,f,c
  2319   001782  3612               	rlcf	(??_convertCANid2Reg+1)^0,f,c
  2320   001784  3613               	rlcf	(??_convertCANid2Reg+2)^0,f,c
  2321   001786  3614               	rlcf	(??_convertCANid2Reg+3)^0,f,c
  2322   001788  2EE8               	decfsz	wreg,f,c
  2323   00178A  EFBF  F00B         	goto	u375
  2324   00178E  C011  F004         	movff	??_convertCANid2Reg,convertCANid2Reg@tempPassedInID
  2325   001792  C012  F005         	movff	??_convertCANid2Reg+1,convertCANid2Reg@tempPassedInID+1
  2326   001796  C013  F006         	movff	??_convertCANid2Reg+2,convertCANid2Reg@tempPassedInID+2
  2327   00179A  C014  F007         	movff	??_convertCANid2Reg+3,convertCANid2Reg@tempPassedInID+3
  2328   00179E                     
  2329                           ;mcc_generated_files/ecan.c: 438:         *passedInSIDL = 0xFF & tempPassedInID;
  2330   00179E  0060  F03F  FFD9   	movff	convertCANid2Reg@passedInSIDL,fsr2l
  2331   0017A4  0060  F043  FFDA   	movff	convertCANid2Reg@passedInSIDL+1,fsr2h
  2332   0017AA  0060  F013  FFDF   	movff	convertCANid2Reg@tempPassedInID,indf2
  2333   0017B0  EF84  F00B         	goto	l1753
  2334   0017B4                     l291:
  2335   0017B4  0012               	return		;funcret
  2336   0017B6                     __end_of_convertCANid2Reg:
  2337                           	callstack 0
  2338                           
  2339 ;; *************** function _CAN_receive *****************
  2340 ;; Defined at:
  2341 ;;		line 248 in file "mcc_generated_files/ecan.c"
  2342 ;; Parameters:    Size  Location     Type
  2343 ;;  tempCanMsg      2   22[COMRAM] PTR struct .
  2344 ;;		 -> main@ReceiveMsg(14), 
  2345 ;; Auto vars:     Size  Location     Type
  2346 ;;  returnValue     1   24[COMRAM] unsigned char 
  2347 ;; Return value:  Size  Location     Type
  2348 ;;                  1    wreg      unsigned char 
  2349 ;; Registers used:
  2350 ;;		wreg, fsr2l, fsr2h, status,2, status,0, cstack
  2351 ;; Tracked objects:
  2352 ;;		On entry : 0/0
  2353 ;;		On exit  : 0/0
  2354 ;;		Unchanged: 0/0
  2355 ;; Data sizes:     COMRAM   BANK0   BANK1   BANK2   BANK3   BANK4   BANK5   BANK6   BANK7   BANK8   BANK9  BANK10  BANK1
      +1  BANK12  BANK13  BANK14  BANK15
  2356 ;;      Params:         2       0       0       0       0       0       0       0       0       0       0       0       
      +0       0       0       0       0
  2357 ;;      Locals:         1       0       0       0       0       0       0       0       0       0       0       0       
      +0       0       0       0       0
  2358 ;;      Temps:          0       0       0       0       0       0       0       0       0       0       0       0       
      +0       0       0       0       0
  2359 ;;      Totals:         3       0       0       0       0       0       0       0       0       0       0       0       
      +0       0       0       0       0
  2360 ;;Total ram usage:        3 bytes
  2361 ;; Hardware stack levels used: 1
  2362 ;; Hardware stack levels required when called: 6
  2363 ;; This function calls:
  2364 ;;		_convertReg2ExtendedCANid
  2365 ;;		_convertReg2StandardCANid
  2366 ;; This function is called by:
  2367 ;;		_main
  2368 ;; This function uses a non-reentrant model
  2369 ;;
  2370                           
  2371                           	psect	text12
  2372   001366                     __ptext12:
  2373                           	callstack 0
  2374   001366                     _CAN_receive:
  2375                           	callstack 24
  2376   001366                     
  2377                           ;mcc_generated_files/ecan.c: 248: uint8_t CAN_receive(uCAN_MSG *tempCanMsg);mcc_generate
      +                          d_files/ecan.c: 249: {;mcc_generated_files/ecan.c: 250:     uint8_t returnValue = 0;
  2378   001366  0E00               	movlw	0
  2379   001368  6E19               	movwf	CAN_receive@returnValue^0,c
  2380   00136A                     
  2381                           ;mcc_generated_files/ecan.c: 253:     if (RXB0CONbits.RXFUL != 0)
  2382   00136A  AE80               	btfss	128,7,c	;volatile
  2383   00136C  EFBA  F009         	goto	u431
  2384   001370  EFBC  F009         	goto	u430
  2385   001374                     u431:
  2386   001374  EF61  F00A         	goto	l256
  2387   001378                     u430:
  2388   001378                     
  2389                           ;mcc_generated_files/ecan.c: 254:     {;mcc_generated_files/ecan.c: 255:         if ((RX
      +                          B0SIDL & 0x08) == 0x08)
  2390   001378  A682               	btfss	130,3,c	;volatile
  2391   00137A  EFC1  F009         	goto	u441
  2392   00137E  EFC3  F009         	goto	u440
  2393   001382                     u441:
  2394   001382  EFEB  F009         	goto	l1957
  2395   001386                     u440:
  2396   001386                     
  2397                           ;mcc_generated_files/ecan.c: 256:         {;mcc_generated_files/ecan.c: 258:            
      +                           tempCanMsg->frame.idType = (uint8_t) 2;
  2398   001386  0060  F05F  FFD9   	movff	CAN_receive@tempCanMsg,fsr2l
  2399   00138C  0060  F063  FFDA   	movff	CAN_receive@tempCanMsg+1,fsr2h
  2400   001392  0E02               	movlw	2
  2401   001394  6EDF               	movwf	indf2,c
  2402   001396                     
  2403                           ;mcc_generated_files/ecan.c: 259:             tempCanMsg->frame.id = convertReg2Extended
      +                          CANid(RXB0EIDH, RXB0EIDL, RXB0SIDH, RXB0SIDL);
  2404   001396  006F FE10  F004    	movff	16260,convertReg2ExtendedCANid@tempRXBn_EIDL	;volatile
  2405   00139C  006F FE04  F005    	movff	16257,convertReg2ExtendedCANid@tempRXBn_SIDH	;volatile
  2406   0013A2  006F FE08  F006    	movff	16258,convertReg2ExtendedCANid@tempRXBn_SIDL	;volatile
  2407   0013A8  5083               	movf	131,w,c	;volatile
  2408   0013AA  ECDB  F00B         	call	_convertReg2ExtendedCANid
  2409   0013AE  EE20 F001          	lfsr	2,1
  2410   0013B2  5017               	movf	CAN_receive@tempCanMsg^0,w,c
  2411   0013B4  26D9               	addwf	fsr2l,f,c
  2412   0013B6  5018               	movf	(CAN_receive@tempCanMsg+1)^0,w,c
  2413   0013B8  22DA               	addwfc	fsr2h,f,c
  2414   0013BA  0060  F013  FFDE   	movff	?_convertReg2ExtendedCANid,postinc2
  2415   0013C0  0060  F017  FFDE   	movff	?_convertReg2ExtendedCANid+1,postinc2
  2416   0013C6  0060  F01B  FFDE   	movff	?_convertReg2ExtendedCANid+2,postinc2
  2417   0013CC  0060  F01F  FFDE   	movff	?_convertReg2ExtendedCANid+3,postinc2
  2418                           
  2419                           ;mcc_generated_files/ecan.c: 260:         }
  2420   0013D2  EF0B  F00A         	goto	l1961
  2421   0013D6                     l1957:
  2422                           
  2423                           ;mcc_generated_files/ecan.c: 262:         {;mcc_generated_files/ecan.c: 264:            
      +                           tempCanMsg->frame.idType = (uint8_t) 1;
  2424   0013D6  0060  F05F  FFD9   	movff	CAN_receive@tempCanMsg,fsr2l
  2425   0013DC  0060  F063  FFDA   	movff	CAN_receive@tempCanMsg+1,fsr2h
  2426   0013E2  0E01               	movlw	1
  2427   0013E4  6EDF               	movwf	indf2,c
  2428   0013E6                     
  2429                           ;mcc_generated_files/ecan.c: 265:             tempCanMsg->frame.id = convertReg2Standard
      +                          CANid(RXB0SIDH, RXB0SIDL);
  2430   0013E6  006F FE08  F004    	movff	16258,convertReg2StandardCANid@tempRXBn_SIDL	;volatile
  2431   0013EC  5081               	movf	129,w,c	;volatile
  2432   0013EE  EC00  F00E         	call	_convertReg2StandardCANid
  2433   0013F2  EE20 F001          	lfsr	2,1
  2434   0013F6  5017               	movf	CAN_receive@tempCanMsg^0,w,c
  2435   0013F8  26D9               	addwf	fsr2l,f,c
  2436   0013FA  5018               	movf	(CAN_receive@tempCanMsg+1)^0,w,c
  2437   0013FC  22DA               	addwfc	fsr2h,f,c
  2438   0013FE  0060  F013  FFDE   	movff	?_convertReg2StandardCANid,postinc2
  2439   001404  0060  F017  FFDE   	movff	?_convertReg2StandardCANid+1,postinc2
  2440   00140A  0060  F01B  FFDE   	movff	?_convertReg2StandardCANid+2,postinc2
  2441   001410  0060  F01F  FFDE   	movff	?_convertReg2StandardCANid+3,postinc2
  2442   001416                     l1961:
  2443                           
  2444                           ;mcc_generated_files/ecan.c: 268:         tempCanMsg->frame.dlc = RXB0DLC;
  2445   001416  EE20 F005          	lfsr	2,5
  2446   00141A  5017               	movf	CAN_receive@tempCanMsg^0,w,c
  2447   00141C  26D9               	addwf	fsr2l,f,c
  2448   00141E  5018               	movf	(CAN_receive@tempCanMsg+1)^0,w,c
  2449   001420  22DA               	addwfc	fsr2h,f,c
  2450   001422  006F FE17 FFDF     	movff	16261,indf2	;volatile
  2451   001428                     
  2452                           ;mcc_generated_files/ecan.c: 269:         tempCanMsg->frame.data0 = RXB0D0;
  2453   001428  EE20 F006          	lfsr	2,6
  2454   00142C  5017               	movf	CAN_receive@tempCanMsg^0,w,c
  2455   00142E  26D9               	addwf	fsr2l,f,c
  2456   001430  5018               	movf	(CAN_receive@tempCanMsg+1)^0,w,c
  2457   001432  22DA               	addwfc	fsr2h,f,c
  2458   001434  006F FE1B FFDF     	movff	16262,indf2	;volatile
  2459   00143A                     
  2460                           ;mcc_generated_files/ecan.c: 270:         tempCanMsg->frame.data1 = RXB0D1;
  2461   00143A  EE20 F007          	lfsr	2,7
  2462   00143E  5017               	movf	CAN_receive@tempCanMsg^0,w,c
  2463   001440  26D9               	addwf	fsr2l,f,c
  2464   001442  5018               	movf	(CAN_receive@tempCanMsg+1)^0,w,c
  2465   001444  22DA               	addwfc	fsr2h,f,c
  2466   001446  006F FE1F FFDF     	movff	16263,indf2	;volatile
  2467   00144C                     
  2468                           ;mcc_generated_files/ecan.c: 271:         tempCanMsg->frame.data2 = RXB0D2;
  2469   00144C  EE20 F008          	lfsr	2,8
  2470   001450  5017               	movf	CAN_receive@tempCanMsg^0,w,c
  2471   001452  26D9               	addwf	fsr2l,f,c
  2472   001454  5018               	movf	(CAN_receive@tempCanMsg+1)^0,w,c
  2473   001456  22DA               	addwfc	fsr2h,f,c
  2474   001458  006F FE23 FFDF     	movff	16264,indf2	;volatile
  2475   00145E                     
  2476                           ;mcc_generated_files/ecan.c: 272:         tempCanMsg->frame.data3 = RXB0D3;
  2477   00145E  EE20 F009          	lfsr	2,9
  2478   001462  5017               	movf	CAN_receive@tempCanMsg^0,w,c
  2479   001464  26D9               	addwf	fsr2l,f,c
  2480   001466  5018               	movf	(CAN_receive@tempCanMsg+1)^0,w,c
  2481   001468  22DA               	addwfc	fsr2h,f,c
  2482   00146A  006F FE27 FFDF     	movff	16265,indf2	;volatile
  2483   001470                     
  2484                           ;mcc_generated_files/ecan.c: 273:         tempCanMsg->frame.data4 = RXB0D4;
  2485   001470  EE20 F00A          	lfsr	2,10
  2486   001474  5017               	movf	CAN_receive@tempCanMsg^0,w,c
  2487   001476  26D9               	addwf	fsr2l,f,c
  2488   001478  5018               	movf	(CAN_receive@tempCanMsg+1)^0,w,c
  2489   00147A  22DA               	addwfc	fsr2h,f,c
  2490   00147C  006F FE2B FFDF     	movff	16266,indf2	;volatile
  2491   001482                     
  2492                           ;mcc_generated_files/ecan.c: 274:         tempCanMsg->frame.data5 = RXB0D5;
  2493   001482  EE20 F00B          	lfsr	2,11
  2494   001486  5017               	movf	CAN_receive@tempCanMsg^0,w,c
  2495   001488  26D9               	addwf	fsr2l,f,c
  2496   00148A  5018               	movf	(CAN_receive@tempCanMsg+1)^0,w,c
  2497   00148C  22DA               	addwfc	fsr2h,f,c
  2498   00148E  006F FE2F FFDF     	movff	16267,indf2	;volatile
  2499   001494                     
  2500                           ;mcc_generated_files/ecan.c: 275:         tempCanMsg->frame.data6 = RXB0D6;
  2501   001494  EE20 F00C          	lfsr	2,12
  2502   001498  5017               	movf	CAN_receive@tempCanMsg^0,w,c
  2503   00149A  26D9               	addwf	fsr2l,f,c
  2504   00149C  5018               	movf	(CAN_receive@tempCanMsg+1)^0,w,c
  2505   00149E  22DA               	addwfc	fsr2h,f,c
  2506   0014A0  006F FE33 FFDF     	movff	16268,indf2	;volatile
  2507   0014A6                     
  2508                           ;mcc_generated_files/ecan.c: 276:         tempCanMsg->frame.data7 = RXB0D7;
  2509   0014A6  EE20 F00D          	lfsr	2,13
  2510   0014AA  5017               	movf	CAN_receive@tempCanMsg^0,w,c
  2511   0014AC  26D9               	addwf	fsr2l,f,c
  2512   0014AE  5018               	movf	(CAN_receive@tempCanMsg+1)^0,w,c
  2513   0014B0  22DA               	addwfc	fsr2h,f,c
  2514   0014B2  006F FE37 FFDF     	movff	16269,indf2	;volatile
  2515   0014B8                     
  2516                           ;mcc_generated_files/ecan.c: 277:         RXB0CONbits.RXFUL = 0;
  2517   0014B8  9E80               	bcf	128,7,c	;volatile
  2518   0014BA                     l1981:
  2519                           
  2520                           ;mcc_generated_files/ecan.c: 278:         returnValue = 1;
  2521   0014BA  0E01               	movlw	1
  2522   0014BC  6E19               	movwf	CAN_receive@returnValue^0,c
  2523                           
  2524                           ;mcc_generated_files/ecan.c: 279:     }
  2525   0014BE  EF0D  F00B         	goto	l2015
  2526   0014C2                     l256:
  2527   0014C2  0137               	movlb	55	; () banked
  2528   0014C4  AFF0               	btfss	240,7,b	;volatile
  2529   0014C6  EF67  F00A         	goto	u451
  2530   0014CA  EF69  F00A         	goto	u450
  2531   0014CE                     u451:
  2532   0014CE  EF0D  F00B         	goto	l2015
  2533   0014D2                     u450:
  2534   0014D2                     
  2535                           ; BSR set to: 55
  2536                           ;mcc_generated_files/ecan.c: 281:     {;mcc_generated_files/ecan.c: 282:         if ((RX
      +                          B1SIDL & 0x08) == 0x08)
  2537   0014D2  A7F2               	btfss	242,3,b	;volatile
  2538   0014D4  EF6E  F00A         	goto	u461
  2539   0014D8  EF70  F00A         	goto	u460
  2540   0014DC                     u461:
  2541   0014DC  EF98  F00A         	goto	l1989
  2542   0014E0                     u460:
  2543   0014E0                     
  2544                           ; BSR set to: 55
  2545                           ;mcc_generated_files/ecan.c: 283:         {;mcc_generated_files/ecan.c: 285:            
      +                           tempCanMsg->frame.idType = (uint8_t) 2;
  2546   0014E0  0060  F05F  FFD9   	movff	CAN_receive@tempCanMsg,fsr2l
  2547   0014E6  0060  F063  FFDA   	movff	CAN_receive@tempCanMsg+1,fsr2h
  2548   0014EC  0E02               	movlw	2
  2549   0014EE  6EDF               	movwf	indf2,c
  2550   0014F0                     
  2551                           ; BSR set to: 55
  2552                           ;mcc_generated_files/ecan.c: 286:             tempCanMsg->frame.id = convertReg2Extended
      +                          CANid(RXB1EIDH, RXB1EIDL, RXB1SIDH, RXB1SIDL);
  2553   0014F0  006D FFD0  F004    	movff	14324,convertReg2ExtendedCANid@tempRXBn_EIDL	;volatile
  2554   0014F6  006D FFC4  F005    	movff	14321,convertReg2ExtendedCANid@tempRXBn_SIDH	;volatile
  2555   0014FC  006D FFC8  F006    	movff	14322,convertReg2ExtendedCANid@tempRXBn_SIDL	;volatile
  2556   001502  51F3               	movf	243,w,b	;volatile
  2557   001504  ECDB  F00B         	call	_convertReg2ExtendedCANid
  2558   001508  EE20 F001          	lfsr	2,1
  2559   00150C  5017               	movf	CAN_receive@tempCanMsg^0,w,c
  2560   00150E  26D9               	addwf	fsr2l,f,c
  2561   001510  5018               	movf	(CAN_receive@tempCanMsg+1)^0,w,c
  2562   001512  22DA               	addwfc	fsr2h,f,c
  2563   001514  0060  F013  FFDE   	movff	?_convertReg2ExtendedCANid,postinc2
  2564   00151A  0060  F017  FFDE   	movff	?_convertReg2ExtendedCANid+1,postinc2
  2565   001520  0060  F01B  FFDE   	movff	?_convertReg2ExtendedCANid+2,postinc2
  2566   001526  0060  F01F  FFDE   	movff	?_convertReg2ExtendedCANid+3,postinc2
  2567                           
  2568                           ;mcc_generated_files/ecan.c: 287:         }
  2569   00152C  EFB8  F00A         	goto	l1993
  2570   001530                     l1989:
  2571                           
  2572                           ; BSR set to: 55
  2573                           ;mcc_generated_files/ecan.c: 289:         {;mcc_generated_files/ecan.c: 291:            
      +                           tempCanMsg->frame.idType = (uint8_t) 1;
  2574   001530  0060  F05F  FFD9   	movff	CAN_receive@tempCanMsg,fsr2l
  2575   001536  0060  F063  FFDA   	movff	CAN_receive@tempCanMsg+1,fsr2h
  2576   00153C  0E01               	movlw	1
  2577   00153E  6EDF               	movwf	indf2,c
  2578   001540                     
  2579                           ; BSR set to: 55
  2580                           ;mcc_generated_files/ecan.c: 292:             tempCanMsg->frame.id = convertReg2Standard
      +                          CANid(RXB1SIDH, RXB1SIDL);
  2581   001540  006D FFC8  F004    	movff	14322,convertReg2StandardCANid@tempRXBn_SIDL	;volatile
  2582   001546  51F1               	movf	241,w,b	;volatile
  2583   001548  EC00  F00E         	call	_convertReg2StandardCANid
  2584   00154C  EE20 F001          	lfsr	2,1
  2585   001550  5017               	movf	CAN_receive@tempCanMsg^0,w,c
  2586   001552  26D9               	addwf	fsr2l,f,c
  2587   001554  5018               	movf	(CAN_receive@tempCanMsg+1)^0,w,c
  2588   001556  22DA               	addwfc	fsr2h,f,c
  2589   001558  0060  F013  FFDE   	movff	?_convertReg2StandardCANid,postinc2
  2590   00155E  0060  F017  FFDE   	movff	?_convertReg2StandardCANid+1,postinc2
  2591   001564  0060  F01B  FFDE   	movff	?_convertReg2StandardCANid+2,postinc2
  2592   00156A  0060  F01F  FFDE   	movff	?_convertReg2StandardCANid+3,postinc2
  2593   001570                     l1993:
  2594                           
  2595                           ;mcc_generated_files/ecan.c: 295:         tempCanMsg->frame.dlc = RXB1DLC;
  2596   001570  EE20 F005          	lfsr	2,5
  2597   001574  5017               	movf	CAN_receive@tempCanMsg^0,w,c
  2598   001576  26D9               	addwf	fsr2l,f,c
  2599   001578  5018               	movf	(CAN_receive@tempCanMsg+1)^0,w,c
  2600   00157A  22DA               	addwfc	fsr2h,f,c
  2601   00157C  006D FFD7 FFDF     	movff	14325,indf2	;volatile
  2602   001582                     
  2603                           ;mcc_generated_files/ecan.c: 296:         tempCanMsg->frame.data0 = RXB1D0;
  2604   001582  EE20 F006          	lfsr	2,6
  2605   001586  5017               	movf	CAN_receive@tempCanMsg^0,w,c
  2606   001588  26D9               	addwf	fsr2l,f,c
  2607   00158A  5018               	movf	(CAN_receive@tempCanMsg+1)^0,w,c
  2608   00158C  22DA               	addwfc	fsr2h,f,c
  2609   00158E  006D FFDB FFDF     	movff	14326,indf2	;volatile
  2610   001594                     
  2611                           ;mcc_generated_files/ecan.c: 297:         tempCanMsg->frame.data1 = RXB1D1;
  2612   001594  EE20 F007          	lfsr	2,7
  2613   001598  5017               	movf	CAN_receive@tempCanMsg^0,w,c
  2614   00159A  26D9               	addwf	fsr2l,f,c
  2615   00159C  5018               	movf	(CAN_receive@tempCanMsg+1)^0,w,c
  2616   00159E  22DA               	addwfc	fsr2h,f,c
  2617   0015A0  006D FFDF FFDF     	movff	14327,indf2	;volatile
  2618   0015A6                     
  2619                           ;mcc_generated_files/ecan.c: 298:         tempCanMsg->frame.data2 = RXB1D2;
  2620   0015A6  EE20 F008          	lfsr	2,8
  2621   0015AA  5017               	movf	CAN_receive@tempCanMsg^0,w,c
  2622   0015AC  26D9               	addwf	fsr2l,f,c
  2623   0015AE  5018               	movf	(CAN_receive@tempCanMsg+1)^0,w,c
  2624   0015B0  22DA               	addwfc	fsr2h,f,c
  2625   0015B2  006D FFE3 FFDF     	movff	14328,indf2	;volatile
  2626   0015B8                     
  2627                           ;mcc_generated_files/ecan.c: 299:         tempCanMsg->frame.data3 = RXB1D3;
  2628   0015B8  EE20 F009          	lfsr	2,9
  2629   0015BC  5017               	movf	CAN_receive@tempCanMsg^0,w,c
  2630   0015BE  26D9               	addwf	fsr2l,f,c
  2631   0015C0  5018               	movf	(CAN_receive@tempCanMsg+1)^0,w,c
  2632   0015C2  22DA               	addwfc	fsr2h,f,c
  2633   0015C4  006D FFE7 FFDF     	movff	14329,indf2	;volatile
  2634   0015CA                     
  2635                           ;mcc_generated_files/ecan.c: 300:         tempCanMsg->frame.data4 = RXB1D4;
  2636   0015CA  EE20 F00A          	lfsr	2,10
  2637   0015CE  5017               	movf	CAN_receive@tempCanMsg^0,w,c
  2638   0015D0  26D9               	addwf	fsr2l,f,c
  2639   0015D2  5018               	movf	(CAN_receive@tempCanMsg+1)^0,w,c
  2640   0015D4  22DA               	addwfc	fsr2h,f,c
  2641   0015D6  006D FFEB FFDF     	movff	14330,indf2	;volatile
  2642   0015DC                     
  2643                           ;mcc_generated_files/ecan.c: 301:         tempCanMsg->frame.data5 = RXB1D5;
  2644   0015DC  EE20 F00B          	lfsr	2,11
  2645   0015E0  5017               	movf	CAN_receive@tempCanMsg^0,w,c
  2646   0015E2  26D9               	addwf	fsr2l,f,c
  2647   0015E4  5018               	movf	(CAN_receive@tempCanMsg+1)^0,w,c
  2648   0015E6  22DA               	addwfc	fsr2h,f,c
  2649   0015E8  006D FFEF FFDF     	movff	14331,indf2	;volatile
  2650   0015EE                     
  2651                           ;mcc_generated_files/ecan.c: 302:         tempCanMsg->frame.data6 = RXB1D6;
  2652   0015EE  EE20 F00C          	lfsr	2,12
  2653   0015F2  5017               	movf	CAN_receive@tempCanMsg^0,w,c
  2654   0015F4  26D9               	addwf	fsr2l,f,c
  2655   0015F6  5018               	movf	(CAN_receive@tempCanMsg+1)^0,w,c
  2656   0015F8  22DA               	addwfc	fsr2h,f,c
  2657   0015FA  006D FFF3 FFDF     	movff	14332,indf2	;volatile
  2658   001600                     
  2659                           ;mcc_generated_files/ecan.c: 303:         tempCanMsg->frame.data7 = RXB1D7;
  2660   001600  EE20 F00D          	lfsr	2,13
  2661   001604  5017               	movf	CAN_receive@tempCanMsg^0,w,c
  2662   001606  26D9               	addwf	fsr2l,f,c
  2663   001608  5018               	movf	(CAN_receive@tempCanMsg+1)^0,w,c
  2664   00160A  22DA               	addwfc	fsr2h,f,c
  2665   00160C  006D FFF7 FFDF     	movff	14333,indf2	;volatile
  2666   001612                     
  2667                           ;mcc_generated_files/ecan.c: 304:         RXB1CONbits.RXFUL = 0;
  2668   001612  0137               	movlb	55	; () banked
  2669   001614  9FF0               	bcf	240,7,b	;volatile
  2670   001616  EF5D  F00A         	goto	l1981
  2671   00161A                     l2015:
  2672                           
  2673                           ;mcc_generated_files/ecan.c: 307:     return (returnValue);
  2674   00161A  5019               	movf	CAN_receive@returnValue^0,w,c
  2675   00161C  0012               	return		;funcret
  2676   00161E                     __end_of_CAN_receive:
  2677                           	callstack 0
  2678                           
  2679 ;; *************** function _convertReg2StandardCANid *****************
  2680 ;; Defined at:
  2681 ;;		line 394 in file "mcc_generated_files/ecan.c"
  2682 ;; Parameters:    Size  Location     Type
  2683 ;;  tempRXBn_SID    1    wreg     unsigned char 
  2684 ;;  tempRXBn_SID    1    3[COMRAM] unsigned char 
  2685 ;; Auto vars:     Size  Location     Type
  2686 ;;  tempRXBn_SID    1    9[COMRAM] unsigned char 
  2687 ;;  ConvertedID     4   14[COMRAM] unsigned long 
  2688 ;;  returnValue     4   10[COMRAM] unsigned long 
  2689 ;; Return value:  Size  Location     Type
  2690 ;;                  4    3[COMRAM] unsigned long 
  2691 ;; Registers used:
  2692 ;;		wreg, status,2, status,0
  2693 ;; Tracked objects:
  2694 ;;		On entry : 0/0
  2695 ;;		On exit  : 0/0
  2696 ;;		Unchanged: 0/0
  2697 ;; Data sizes:     COMRAM   BANK0   BANK1   BANK2   BANK3   BANK4   BANK5   BANK6   BANK7   BANK8   BANK9  BANK10  BANK1
      +1  BANK12  BANK13  BANK14  BANK15
  2698 ;;      Params:         4       0       0       0       0       0       0       0       0       0       0       0       
      +0       0       0       0       0
  2699 ;;      Locals:         9       0       0       0       0       0       0       0       0       0       0       0       
      +0       0       0       0       0
  2700 ;;      Temps:          2       0       0       0       0       0       0       0       0       0       0       0       
      +0       0       0       0       0
  2701 ;;      Totals:        15       0       0       0       0       0       0       0       0       0       0       0       
      +0       0       0       0       0
  2702 ;;Total ram usage:       15 bytes
  2703 ;; Hardware stack levels used: 1
  2704 ;; Hardware stack levels required when called: 5
  2705 ;; This function calls:
  2706 ;;		Nothing
  2707 ;; This function is called by:
  2708 ;;		_CAN_receive
  2709 ;; This function uses a non-reentrant model
  2710 ;;
  2711                           
  2712                           	psect	text13
  2713   001C00                     __ptext13:
  2714                           	callstack 0
  2715   001C00                     _convertReg2StandardCANid:
  2716                           	callstack 24
  2717                           
  2718                           ;incstack = 0
  2719                           ;convertReg2StandardCANid@tempRXBn_SIDH stored from wreg
  2720   001C00  6E0A               	movwf	convertReg2StandardCANid@tempRXBn_SIDH^0,c
  2721   001C02                     
  2722                           ;mcc_generated_files/ecan.c: 397:     uint32_t ConvertedID;;mcc_generated_files/ecan.c: 
      +                          401:     ConvertedID = (uint32_t)(tempRXBn_SIDH << 3);
  2723   001C02  500A               	movf	convertReg2StandardCANid@tempRXBn_SIDH^0,w,c
  2724   001C04  6E08               	movwf	??_convertReg2StandardCANid^0,c
  2725   001C06  6A09               	clrf	(??_convertReg2StandardCANid+1)^0,c
  2726   001C08  90D8               	bcf	status,0,c
  2727   001C0A  3608               	rlcf	??_convertReg2StandardCANid^0,f,c
  2728   001C0C  3609               	rlcf	(??_convertReg2StandardCANid+1)^0,f,c
  2729   001C0E  90D8               	bcf	status,0,c
  2730   001C10  3608               	rlcf	??_convertReg2StandardCANid^0,f,c
  2731   001C12  3609               	rlcf	(??_convertReg2StandardCANid+1)^0,f,c
  2732   001C14  90D8               	bcf	status,0,c
  2733   001C16  3608               	rlcf	??_convertReg2StandardCANid^0,f,c
  2734   001C18  3609               	rlcf	(??_convertReg2StandardCANid+1)^0,f,c
  2735   001C1A  C008  F00F         	movff	??_convertReg2StandardCANid,convertReg2StandardCANid@ConvertedID
  2736   001C1E  C009  F010         	movff	??_convertReg2StandardCANid+1,convertReg2StandardCANid@ConvertedID+1
  2737   001C22  0E00               	movlw	0
  2738   001C24  BE10               	btfsc	(convertReg2StandardCANid@ConvertedID+1)^0,7,c
  2739   001C26  0EFF               	movlw	-1
  2740   001C28  6E11               	movwf	(convertReg2StandardCANid@ConvertedID+2)^0,c
  2741   001C2A  6E12               	movwf	(convertReg2StandardCANid@ConvertedID+3)^0,c
  2742   001C2C                     
  2743                           ;mcc_generated_files/ecan.c: 402:     ConvertedID = ConvertedID + (uint32_t)(tempRXBn_SI
      +                          DL >> 5);
  2744   001C2C  C004  F008         	movff	convertReg2StandardCANid@tempRXBn_SIDL,??_convertReg2StandardCANid
  2745   001C30  0E05               	movlw	5
  2746   001C32  6E09               	movwf	(??_convertReg2StandardCANid+1)^0,c
  2747   001C34                     u395:
  2748   001C34  90D8               	bcf	status,0,c
  2749   001C36  3208               	rrcf	??_convertReg2StandardCANid^0,f,c
  2750   001C38  2E09               	decfsz	(??_convertReg2StandardCANid+1)^0,f,c
  2751   001C3A  EF1A  F00E         	goto	u395
  2752   001C3E  5008               	movf	??_convertReg2StandardCANid^0,w,c
  2753   001C40  240F               	addwf	convertReg2StandardCANid@ConvertedID^0,w,c
  2754   001C42  6E0F               	movwf	convertReg2StandardCANid@ConvertedID^0,c
  2755   001C44  0E00               	movlw	0
  2756   001C46  2010               	addwfc	(convertReg2StandardCANid@ConvertedID+1)^0,w,c
  2757   001C48  6E10               	movwf	(convertReg2StandardCANid@ConvertedID+1)^0,c
  2758   001C4A  0E00               	movlw	0
  2759   001C4C  2011               	addwfc	(convertReg2StandardCANid@ConvertedID+2)^0,w,c
  2760   001C4E  6E11               	movwf	(convertReg2StandardCANid@ConvertedID+2)^0,c
  2761   001C50  0E00               	movlw	0
  2762   001C52  2012               	addwfc	(convertReg2StandardCANid@ConvertedID+3)^0,w,c
  2763   001C54  6E12               	movwf	(convertReg2StandardCANid@ConvertedID+3)^0,c
  2764   001C56                     
  2765                           ;mcc_generated_files/ecan.c: 403:     returnValue = ConvertedID;
  2766   001C56  C00F  F00B         	movff	convertReg2StandardCANid@ConvertedID,convertReg2StandardCANid@returnValue
  2767   001C5A  C010  F00C         	movff	convertReg2StandardCANid@ConvertedID+1,convertReg2StandardCANid@returnValue+1
  2768   001C5E  C011  F00D         	movff	convertReg2StandardCANid@ConvertedID+2,convertReg2StandardCANid@returnValue+2
  2769   001C62  C012  F00E         	movff	convertReg2StandardCANid@ConvertedID+3,convertReg2StandardCANid@returnValue+3
  2770   001C66                     
  2771                           ;mcc_generated_files/ecan.c: 404:     return (returnValue);
  2772   001C66  C00B  F004         	movff	convertReg2StandardCANid@returnValue,?_convertReg2StandardCANid
  2773   001C6A  C00C  F005         	movff	convertReg2StandardCANid@returnValue+1,?_convertReg2StandardCANid+1
  2774   001C6E  C00D  F006         	movff	convertReg2StandardCANid@returnValue+2,?_convertReg2StandardCANid+2
  2775   001C72  C00E  F007         	movff	convertReg2StandardCANid@returnValue+3,?_convertReg2StandardCANid+3
  2776   001C76  0012               	return		;funcret
  2777   001C78                     __end_of_convertReg2StandardCANid:
  2778                           	callstack 0
  2779                           
  2780 ;; *************** function _convertReg2ExtendedCANid *****************
  2781 ;; Defined at:
  2782 ;;		line 373 in file "mcc_generated_files/ecan.c"
  2783 ;; Parameters:    Size  Location     Type
  2784 ;;  tempRXBn_EID    1    wreg     unsigned char 
  2785 ;;  tempRXBn_EID    1    3[COMRAM] unsigned char 
  2786 ;;  tempRXBn_SID    1    4[COMRAM] unsigned char 
  2787 ;;  tempRXBn_SID    1    5[COMRAM] unsigned char 
  2788 ;; Auto vars:     Size  Location     Type
  2789 ;;  tempRXBn_EID    1   11[COMRAM] unsigned char 
  2790 ;;  ConvertedID     4   18[COMRAM] unsigned long 
  2791 ;;  returnValue     4   12[COMRAM] unsigned long 
  2792 ;;  CAN_standard    1   17[COMRAM] unsigned char 
  2793 ;;  CAN_standard    1   16[COMRAM] unsigned char 
  2794 ;; Return value:  Size  Location     Type
  2795 ;;                  4    3[COMRAM] unsigned long 
  2796 ;; Registers used:
  2797 ;;		wreg, status,2, status,0
  2798 ;; Tracked objects:
  2799 ;;		On entry : 0/0
  2800 ;;		On exit  : 0/0
  2801 ;;		Unchanged: 0/0
  2802 ;; Data sizes:     COMRAM   BANK0   BANK1   BANK2   BANK3   BANK4   BANK5   BANK6   BANK7   BANK8   BANK9  BANK10  BANK1
      +1  BANK12  BANK13  BANK14  BANK15
  2803 ;;      Params:         4       0       0       0       0       0       0       0       0       0       0       0       
      +0       0       0       0       0
  2804 ;;      Locals:        11       0       0       0       0       0       0       0       0       0       0       0       
      +0       0       0       0       0
  2805 ;;      Temps:          4       0       0       0       0       0       0       0       0       0       0       0       
      +0       0       0       0       0
  2806 ;;      Totals:        19       0       0       0       0       0       0       0       0       0       0       0       
      +0       0       0       0       0
  2807 ;;Total ram usage:       19 bytes
  2808 ;; Hardware stack levels used: 1
  2809 ;; Hardware stack levels required when called: 5
  2810 ;; This function calls:
  2811 ;;		Nothing
  2812 ;; This function is called by:
  2813 ;;		_CAN_receive
  2814 ;; This function uses a non-reentrant model
  2815 ;;
  2816                           
  2817                           	psect	text14
  2818   0017B6                     __ptext14:
  2819                           	callstack 0
  2820   0017B6                     _convertReg2ExtendedCANid:
  2821                           	callstack 24
  2822                           
  2823                           ;incstack = 0
  2824                           ;convertReg2ExtendedCANid@tempRXBn_EIDH stored from wreg
  2825   0017B6  6E0C               	movwf	convertReg2ExtendedCANid@tempRXBn_EIDH^0,c
  2826   0017B8                     
  2827                           ;mcc_generated_files/ecan.c: 376:     uint32_t ConvertedID = 0;
  2828   0017B8  0E00               	movlw	0
  2829   0017BA  6E13               	movwf	convertReg2ExtendedCANid@ConvertedID^0,c
  2830   0017BC  0E00               	movlw	0
  2831   0017BE  6E14               	movwf	(convertReg2ExtendedCANid@ConvertedID+1)^0,c
  2832   0017C0  0E00               	movlw	0
  2833   0017C2  6E15               	movwf	(convertReg2ExtendedCANid@ConvertedID+2)^0,c
  2834   0017C4  0E00               	movlw	0
  2835   0017C6  6E16               	movwf	(convertReg2ExtendedCANid@ConvertedID+3)^0,c
  2836   0017C8                     
  2837                           ;mcc_generated_files/ecan.c: 377:     uint8_t CAN_standardLo_ID_lo2bits;;mcc_generated_f
      +                          iles/ecan.c: 378:     uint8_t CAN_standardLo_ID_hi3bits;;mcc_generated_files/ecan.c: 380
      +                          :     CAN_standardLo_ID_lo2bits = (uint8_t)(tempRXBn_SIDL & 0x03);
  2838   0017C8  5006               	movf	convertReg2ExtendedCANid@tempRXBn_SIDL^0,w,c
  2839   0017CA  0B03               	andlw	3
  2840   0017CC  6E11               	movwf	convertReg2ExtendedCANid@CAN_standardLo_ID_lo2bits^0,c
  2841   0017CE                     
  2842                           ;mcc_generated_files/ecan.c: 381:     CAN_standardLo_ID_hi3bits = (uint8_t)(tempRXBn_SID
      +                          L >> 5);
  2843   0017CE  3806               	swapf	convertReg2ExtendedCANid@tempRXBn_SIDL^0,w,c
  2844   0017D0  42E8               	rrncf	wreg,f,c
  2845   0017D2  0B07               	andlw	7
  2846   0017D4  6E12               	movwf	convertReg2ExtendedCANid@CAN_standardLo_ID_hi3bits^0,c
  2847   0017D6                     
  2848                           ;mcc_generated_files/ecan.c: 382:     ConvertedID = (uint32_t)(tempRXBn_SIDH << 3);
  2849   0017D6  5005               	movf	convertReg2ExtendedCANid@tempRXBn_SIDH^0,w,c
  2850   0017D8  6E08               	movwf	??_convertReg2ExtendedCANid^0,c
  2851   0017DA  6A09               	clrf	(??_convertReg2ExtendedCANid+1)^0,c
  2852   0017DC  90D8               	bcf	status,0,c
  2853   0017DE  3608               	rlcf	??_convertReg2ExtendedCANid^0,f,c
  2854   0017E0  3609               	rlcf	(??_convertReg2ExtendedCANid+1)^0,f,c
  2855   0017E2  90D8               	bcf	status,0,c
  2856   0017E4  3608               	rlcf	??_convertReg2ExtendedCANid^0,f,c
  2857   0017E6  3609               	rlcf	(??_convertReg2ExtendedCANid+1)^0,f,c
  2858   0017E8  90D8               	bcf	status,0,c
  2859   0017EA  3608               	rlcf	??_convertReg2ExtendedCANid^0,f,c
  2860   0017EC  3609               	rlcf	(??_convertReg2ExtendedCANid+1)^0,f,c
  2861   0017EE  C008  F013         	movff	??_convertReg2ExtendedCANid,convertReg2ExtendedCANid@ConvertedID
  2862   0017F2  C009  F014         	movff	??_convertReg2ExtendedCANid+1,convertReg2ExtendedCANid@ConvertedID+1
  2863   0017F6  0E00               	movlw	0
  2864   0017F8  BE14               	btfsc	(convertReg2ExtendedCANid@ConvertedID+1)^0,7,c
  2865   0017FA  0EFF               	movlw	-1
  2866   0017FC  6E15               	movwf	(convertReg2ExtendedCANid@ConvertedID+2)^0,c
  2867   0017FE  6E16               	movwf	(convertReg2ExtendedCANid@ConvertedID+3)^0,c
  2868   001800                     
  2869                           ;mcc_generated_files/ecan.c: 383:     ConvertedID = ConvertedID + CAN_standardLo_ID_hi3b
      +                          its;
  2870   001800  5012               	movf	convertReg2ExtendedCANid@CAN_standardLo_ID_hi3bits^0,w,c
  2871   001802  2413               	addwf	convertReg2ExtendedCANid@ConvertedID^0,w,c
  2872   001804  6E13               	movwf	convertReg2ExtendedCANid@ConvertedID^0,c
  2873   001806  0E00               	movlw	0
  2874   001808  2014               	addwfc	(convertReg2ExtendedCANid@ConvertedID+1)^0,w,c
  2875   00180A  6E14               	movwf	(convertReg2ExtendedCANid@ConvertedID+1)^0,c
  2876   00180C  0E00               	movlw	0
  2877   00180E  2015               	addwfc	(convertReg2ExtendedCANid@ConvertedID+2)^0,w,c
  2878   001810  6E15               	movwf	(convertReg2ExtendedCANid@ConvertedID+2)^0,c
  2879   001812  0E00               	movlw	0
  2880   001814  2016               	addwfc	(convertReg2ExtendedCANid@ConvertedID+3)^0,w,c
  2881   001816  6E16               	movwf	(convertReg2ExtendedCANid@ConvertedID+3)^0,c
  2882   001818                     
  2883                           ;mcc_generated_files/ecan.c: 384:     ConvertedID = (ConvertedID << 2);
  2884   001818  C013  F008         	movff	convertReg2ExtendedCANid@ConvertedID,??_convertReg2ExtendedCANid
  2885   00181C  C014  F009         	movff	convertReg2ExtendedCANid@ConvertedID+1,??_convertReg2ExtendedCANid+1
  2886   001820  C015  F00A         	movff	convertReg2ExtendedCANid@ConvertedID+2,??_convertReg2ExtendedCANid+2
  2887   001824  C016  F00B         	movff	convertReg2ExtendedCANid@ConvertedID+3,??_convertReg2ExtendedCANid+3
  2888   001828  0E02               	movlw	2
  2889   00182A                     u385:
  2890   00182A  90D8               	bcf	status,0,c
  2891   00182C  3608               	rlcf	??_convertReg2ExtendedCANid^0,f,c
  2892   00182E  3609               	rlcf	(??_convertReg2ExtendedCANid+1)^0,f,c
  2893   001830  360A               	rlcf	(??_convertReg2ExtendedCANid+2)^0,f,c
  2894   001832  360B               	rlcf	(??_convertReg2ExtendedCANid+3)^0,f,c
  2895   001834  2EE8               	decfsz	wreg,f,c
  2896   001836  EF15  F00C         	goto	u385
  2897   00183A  C008  F013         	movff	??_convertReg2ExtendedCANid,convertReg2ExtendedCANid@ConvertedID
  2898   00183E  C009  F014         	movff	??_convertReg2ExtendedCANid+1,convertReg2ExtendedCANid@ConvertedID+1
  2899   001842  C00A  F015         	movff	??_convertReg2ExtendedCANid+2,convertReg2ExtendedCANid@ConvertedID+2
  2900   001846  C00B  F016         	movff	??_convertReg2ExtendedCANid+3,convertReg2ExtendedCANid@ConvertedID+3
  2901   00184A                     
  2902                           ;mcc_generated_files/ecan.c: 385:     ConvertedID = ConvertedID + CAN_standardLo_ID_lo2b
      +                          its;
  2903   00184A  5011               	movf	convertReg2ExtendedCANid@CAN_standardLo_ID_lo2bits^0,w,c
  2904   00184C  2413               	addwf	convertReg2ExtendedCANid@ConvertedID^0,w,c
  2905   00184E  6E13               	movwf	convertReg2ExtendedCANid@ConvertedID^0,c
  2906   001850  0E00               	movlw	0
  2907   001852  2014               	addwfc	(convertReg2ExtendedCANid@ConvertedID+1)^0,w,c
  2908   001854  6E14               	movwf	(convertReg2ExtendedCANid@ConvertedID+1)^0,c
  2909   001856  0E00               	movlw	0
  2910   001858  2015               	addwfc	(convertReg2ExtendedCANid@ConvertedID+2)^0,w,c
  2911   00185A  6E15               	movwf	(convertReg2ExtendedCANid@ConvertedID+2)^0,c
  2912   00185C  0E00               	movlw	0
  2913   00185E  2016               	addwfc	(convertReg2ExtendedCANid@ConvertedID+3)^0,w,c
  2914   001860  6E16               	movwf	(convertReg2ExtendedCANid@ConvertedID+3)^0,c
  2915                           
  2916                           ;mcc_generated_files/ecan.c: 386:     ConvertedID = (ConvertedID << 8);
  2917   001862  C013  F009         	movff	convertReg2ExtendedCANid@ConvertedID,??_convertReg2ExtendedCANid+1
  2918   001866  C014  F00A         	movff	convertReg2ExtendedCANid@ConvertedID+1,??_convertReg2ExtendedCANid+2
  2919   00186A  C015  F00B         	movff	convertReg2ExtendedCANid@ConvertedID+2,??_convertReg2ExtendedCANid+3
  2920   00186E  6A08               	clrf	??_convertReg2ExtendedCANid^0,c
  2921   001870  C008  F013         	movff	??_convertReg2ExtendedCANid,convertReg2ExtendedCANid@ConvertedID
  2922   001874  C009  F014         	movff	??_convertReg2ExtendedCANid+1,convertReg2ExtendedCANid@ConvertedID+1
  2923   001878  C00A  F015         	movff	??_convertReg2ExtendedCANid+2,convertReg2ExtendedCANid@ConvertedID+2
  2924   00187C  C00B  F016         	movff	??_convertReg2ExtendedCANid+3,convertReg2ExtendedCANid@ConvertedID+3
  2925   001880                     
  2926                           ;mcc_generated_files/ecan.c: 387:     ConvertedID = ConvertedID + tempRXBn_EIDH;
  2927   001880  500C               	movf	convertReg2ExtendedCANid@tempRXBn_EIDH^0,w,c
  2928   001882  2413               	addwf	convertReg2ExtendedCANid@ConvertedID^0,w,c
  2929   001884  6E13               	movwf	convertReg2ExtendedCANid@ConvertedID^0,c
  2930   001886  0E00               	movlw	0
  2931   001888  2014               	addwfc	(convertReg2ExtendedCANid@ConvertedID+1)^0,w,c
  2932   00188A  6E14               	movwf	(convertReg2ExtendedCANid@ConvertedID+1)^0,c
  2933   00188C  0E00               	movlw	0
  2934   00188E  2015               	addwfc	(convertReg2ExtendedCANid@ConvertedID+2)^0,w,c
  2935   001890  6E15               	movwf	(convertReg2ExtendedCANid@ConvertedID+2)^0,c
  2936   001892  0E00               	movlw	0
  2937   001894  2016               	addwfc	(convertReg2ExtendedCANid@ConvertedID+3)^0,w,c
  2938   001896  6E16               	movwf	(convertReg2ExtendedCANid@ConvertedID+3)^0,c
  2939   001898                     
  2940                           ;mcc_generated_files/ecan.c: 388:     ConvertedID = (ConvertedID << 8);
  2941   001898  C013  F009         	movff	convertReg2ExtendedCANid@ConvertedID,??_convertReg2ExtendedCANid+1
  2942   00189C  C014  F00A         	movff	convertReg2ExtendedCANid@ConvertedID+1,??_convertReg2ExtendedCANid+2
  2943   0018A0  C015  F00B         	movff	convertReg2ExtendedCANid@ConvertedID+2,??_convertReg2ExtendedCANid+3
  2944   0018A4  6A08               	clrf	??_convertReg2ExtendedCANid^0,c
  2945   0018A6  C008  F013         	movff	??_convertReg2ExtendedCANid,convertReg2ExtendedCANid@ConvertedID
  2946   0018AA  C009  F014         	movff	??_convertReg2ExtendedCANid+1,convertReg2ExtendedCANid@ConvertedID+1
  2947   0018AE  C00A  F015         	movff	??_convertReg2ExtendedCANid+2,convertReg2ExtendedCANid@ConvertedID+2
  2948   0018B2  C00B  F016         	movff	??_convertReg2ExtendedCANid+3,convertReg2ExtendedCANid@ConvertedID+3
  2949                           
  2950                           ;mcc_generated_files/ecan.c: 389:     ConvertedID = ConvertedID + tempRXBn_EIDL;
  2951   0018B6  5004               	movf	convertReg2ExtendedCANid@tempRXBn_EIDL^0,w,c
  2952   0018B8  2413               	addwf	convertReg2ExtendedCANid@ConvertedID^0,w,c
  2953   0018BA  6E13               	movwf	convertReg2ExtendedCANid@ConvertedID^0,c
  2954   0018BC  0E00               	movlw	0
  2955   0018BE  2014               	addwfc	(convertReg2ExtendedCANid@ConvertedID+1)^0,w,c
  2956   0018C0  6E14               	movwf	(convertReg2ExtendedCANid@ConvertedID+1)^0,c
  2957   0018C2  0E00               	movlw	0
  2958   0018C4  2015               	addwfc	(convertReg2ExtendedCANid@ConvertedID+2)^0,w,c
  2959   0018C6  6E15               	movwf	(convertReg2ExtendedCANid@ConvertedID+2)^0,c
  2960   0018C8  0E00               	movlw	0
  2961   0018CA  2016               	addwfc	(convertReg2ExtendedCANid@ConvertedID+3)^0,w,c
  2962   0018CC  6E16               	movwf	(convertReg2ExtendedCANid@ConvertedID+3)^0,c
  2963   0018CE                     
  2964                           ;mcc_generated_files/ecan.c: 390:     returnValue = ConvertedID;
  2965   0018CE  C013  F00D         	movff	convertReg2ExtendedCANid@ConvertedID,convertReg2ExtendedCANid@returnValue
  2966   0018D2  C014  F00E         	movff	convertReg2ExtendedCANid@ConvertedID+1,convertReg2ExtendedCANid@returnValue+1
  2967   0018D6  C015  F00F         	movff	convertReg2ExtendedCANid@ConvertedID+2,convertReg2ExtendedCANid@returnValue+2
  2968   0018DA  C016  F010         	movff	convertReg2ExtendedCANid@ConvertedID+3,convertReg2ExtendedCANid@returnValue+3
  2969   0018DE                     
  2970                           ;mcc_generated_files/ecan.c: 391:     return (returnValue);
  2971   0018DE  C00D  F004         	movff	convertReg2ExtendedCANid@returnValue,?_convertReg2ExtendedCANid
  2972   0018E2  C00E  F005         	movff	convertReg2ExtendedCANid@returnValue+1,?_convertReg2ExtendedCANid+1
  2973   0018E6  C00F  F006         	movff	convertReg2ExtendedCANid@returnValue+2,?_convertReg2ExtendedCANid+2
  2974   0018EA  C010  F007         	movff	convertReg2ExtendedCANid@returnValue+3,?_convertReg2ExtendedCANid+3
  2975   0018EE  0012               	return		;funcret
  2976   0018F0                     __end_of_convertReg2ExtendedCANid:
  2977                           	callstack 0
  2978                           
  2979 ;; *************** function _INTERRUPT_InterruptManager *****************
  2980 ;; Defined at:
  2981 ;;		line 64 in file "mcc_generated_files/interrupt_manager.c"
  2982 ;; Parameters:    Size  Location     Type
  2983 ;;		None
  2984 ;; Auto vars:     Size  Location     Type
  2985 ;;		None
  2986 ;; Return value:  Size  Location     Type
  2987 ;;                  1    wreg      void 
  2988 ;; Registers used:
  2989 ;;		wreg, status,2, status,0, pcl, pclath, pclatu, tosl, cstack
  2990 ;; Tracked objects:
  2991 ;;		On entry : 0/0
  2992 ;;		On exit  : 0/0
  2993 ;;		Unchanged: 0/0
  2994 ;; Data sizes:     COMRAM   BANK0   BANK1   BANK2   BANK3   BANK4   BANK5   BANK6   BANK7   BANK8   BANK9  BANK10  BANK1
      +1  BANK12  BANK13  BANK14  BANK15
  2995 ;;      Params:         0       0       0       0       0       0       0       0       0       0       0       0       
      +0       0       0       0       0
  2996 ;;      Locals:         0       0       0       0       0       0       0       0       0       0       0       0       
      +0       0       0       0       0
  2997 ;;      Temps:          2       0       0       0       0       0       0       0       0       0       0       0       
      +0       0       0       0       0
  2998 ;;      Totals:         2       0       0       0       0       0       0       0       0       0       0       0       
      +0       0       0       0       0
  2999 ;;Total ram usage:        2 bytes
  3000 ;; Hardware stack levels used: 1
  3001 ;; Hardware stack levels required when called: 4
  3002 ;; This function calls:
  3003 ;;		_PIN_MANAGER_IOC
  3004 ;; This function is called by:
  3005 ;;		Interrupt level 2
  3006 ;; This function uses a non-reentrant model
  3007 ;;
  3008                           
  3009                           	psect	text15
  3010   001C78                     __ptext15:
  3011                           	callstack 0
  3012   001C78                     _INTERRUPT_InterruptManager:
  3013                           	callstack 23
  3014                           
  3015                           ;incstack = 0
  3016   001C78  006F FFE8  F002    	movff	pclath,??_INTERRUPT_InterruptManager
  3017   001C7E  006F FFEC  F003    	movff	pclatu,??_INTERRUPT_InterruptManager+1
  3018   001C84                     
  3019                           ;mcc_generated_files/interrupt_manager.c: 68:     if(PIE0bits.IOCIE == 1 && PIR0bits.IOC
      +                          IF == 1)
  3020   001C84  0139               	movlb	57	; () banked
  3021   001C86  AF90               	btfss	144,7,b	;volatile
  3022   001C88  EF48  F00E         	goto	i2u31_41
  3023   001C8C  EF4A  F00E         	goto	i2u31_40
  3024   001C90                     i2u31_41:
  3025   001C90  EF55  F00E         	goto	i2l518
  3026   001C94                     i2u31_40:
  3027   001C94                     
  3028                           ; BSR set to: 57
  3029   001C94  AFA0               	btfss	160,7,b	;volatile
  3030   001C96  EF4F  F00E         	goto	i2u32_41
  3031   001C9A  EF51  F00E         	goto	i2u32_40
  3032   001C9E                     i2u32_41:
  3033   001C9E  EF55  F00E         	goto	i2l518
  3034   001CA2                     i2u32_40:
  3035   001CA2                     
  3036                           ; BSR set to: 57
  3037                           ;mcc_generated_files/interrupt_manager.c: 69:     {;mcc_generated_files/interrupt_manage
      +                          r.c: 71:         PIN_MANAGER_IOC();
  3038   001CA2  ECB9  F00E         	call	_PIN_MANAGER_IOC	;wreg free
  3039   001CA6                     
  3040                           ;mcc_generated_files/interrupt_manager.c: 73:         PIR0bits.IOCIF = 0;
  3041   001CA6  0139               	movlb	57	; () banked
  3042   001CA8  9FA0               	bcf	160,7,b	;volatile
  3043   001CAA                     i2l518:
  3044                           
  3045                           ; BSR set to: 57
  3046   001CAA  0060  F00F  FFFB   	movff	??_INTERRUPT_InterruptManager+1,pclatu
  3047   001CB0  0060  F00B  FFFA   	movff	??_INTERRUPT_InterruptManager,pclath
  3048   001CB6  0011               	retfie		f
  3049   001CB8                     __end_of_INTERRUPT_InterruptManager:
  3050                           	callstack 0
  3051                           
  3052 ;; *************** function _PIN_MANAGER_IOC *****************
  3053 ;; Defined at:
  3054 ;;		line 140 in file "mcc_generated_files/pin_manager.c"
  3055 ;; Parameters:    Size  Location     Type
  3056 ;;		None
  3057 ;; Auto vars:     Size  Location     Type
  3058 ;;		None
  3059 ;; Return value:  Size  Location     Type
  3060 ;;                  1    wreg      void 
  3061 ;; Registers used:
  3062 ;;		wreg, status,2, status,0, pcl, pclath, pclatu, tosl, cstack
  3063 ;; Tracked objects:
  3064 ;;		On entry : 0/0
  3065 ;;		On exit  : 0/0
  3066 ;;		Unchanged: 0/0
  3067 ;; Data sizes:     COMRAM   BANK0   BANK1   BANK2   BANK3   BANK4   BANK5   BANK6   BANK7   BANK8   BANK9  BANK10  BANK1
      +1  BANK12  BANK13  BANK14  BANK15
  3068 ;;      Params:         0       0       0       0       0       0       0       0       0       0       0       0       
      +0       0       0       0       0
  3069 ;;      Locals:         0       0       0       0       0       0       0       0       0       0       0       0       
      +0       0       0       0       0
  3070 ;;      Temps:          0       0       0       0       0       0       0       0       0       0       0       0       
      +0       0       0       0       0
  3071 ;;      Totals:         0       0       0       0       0       0       0       0       0       0       0       0       
      +0       0       0       0       0
  3072 ;;Total ram usage:        0 bytes
  3073 ;; Hardware stack levels used: 1
  3074 ;; Hardware stack levels required when called: 3
  3075 ;; This function calls:
  3076 ;;		_IOCAF5_ISR
  3077 ;; This function is called by:
  3078 ;;		_INTERRUPT_InterruptManager
  3079 ;; This function uses a non-reentrant model
  3080 ;;
  3081                           
  3082                           	psect	text16
  3083   001D72                     __ptext16:
  3084                           	callstack 0
  3085   001D72                     _PIN_MANAGER_IOC:
  3086                           	callstack 23
  3087   001D72                     
  3088                           ;mcc_generated_files/pin_manager.c: 143:     if(IOCAFbits.IOCAF5 == 1)
  3089   001D72  013A               	movlb	58	; () banked
  3090   001D74  AB47               	btfss	71,5,b	;volatile
  3091   001D76  EFBF  F00E         	goto	i2u20_41
  3092   001D7A  EFC1  F00E         	goto	i2u20_40
  3093   001D7E                     i2u20_41:
  3094   001D7E  EFC3  F00E         	goto	i2l490
  3095   001D82                     i2u20_40:
  3096   001D82                     
  3097                           ; BSR set to: 58
  3098                           ;mcc_generated_files/pin_manager.c: 144:     {;mcc_generated_files/pin_manager.c: 145:  
      +                                 IOCAF5_ISR();
  3099   001D82  EC5C  F00E         	call	_IOCAF5_ISR	;wreg free
  3100   001D86                     i2l490:
  3101   001D86  0012               	return		;funcret
  3102   001D88                     __end_of_PIN_MANAGER_IOC:
  3103                           	callstack 0
  3104                           
  3105 ;; *************** function _IOCAF5_ISR *****************
  3106 ;; Defined at:
  3107 ;;		line 152 in file "mcc_generated_files/pin_manager.c"
  3108 ;; Parameters:    Size  Location     Type
  3109 ;;		None
  3110 ;; Auto vars:     Size  Location     Type
  3111 ;;		None
  3112 ;; Return value:  Size  Location     Type
  3113 ;;                  1    wreg      void 
  3114 ;; Registers used:
  3115 ;;		wreg, status,2, status,0, pcl, pclath, pclatu, tosl, cstack
  3116 ;; Tracked objects:
  3117 ;;		On entry : 0/0
  3118 ;;		On exit  : 0/0
  3119 ;;		Unchanged: 0/0
  3120 ;; Data sizes:     COMRAM   BANK0   BANK1   BANK2   BANK3   BANK4   BANK5   BANK6   BANK7   BANK8   BANK9  BANK10  BANK1
      +1  BANK12  BANK13  BANK14  BANK15
  3121 ;;      Params:         0       0       0       0       0       0       0       0       0       0       0       0       
      +0       0       0       0       0
  3122 ;;      Locals:         0       0       0       0       0       0       0       0       0       0       0       0       
      +0       0       0       0       0
  3123 ;;      Temps:          0       0       0       0       0       0       0       0       0       0       0       0       
      +0       0       0       0       0
  3124 ;;      Totals:         0       0       0       0       0       0       0       0       0       0       0       0       
      +0       0       0       0       0
  3125 ;;Total ram usage:        0 bytes
  3126 ;; Hardware stack levels used: 1
  3127 ;; Hardware stack levels required when called: 2
  3128 ;; This function calls:
  3129 ;;		Absolute function
  3130 ;;		_IOCAF5_DefaultInterruptHandler
  3131 ;;		_SS_InterruptHandler
  3132 ;; This function is called by:
  3133 ;;		_PIN_MANAGER_IOC
  3134 ;; This function uses a non-reentrant model
  3135 ;;
  3136                           
  3137                           	psect	text17
  3138   001CB8                     __ptext17:
  3139                           	callstack 0
  3140   001CB8                     _IOCAF5_ISR:
  3141                           	callstack 23
  3142   001CB8                     
  3143                           ;mcc_generated_files/pin_manager.c: 157:     if(IOCAF5_InterruptHandler)
  3144   001CB8  503A               	movf	_IOCAF5_InterruptHandler^0,w,c
  3145   001CBA  103B               	iorwf	(_IOCAF5_InterruptHandler+1)^0,w,c
  3146   001CBC  B4D8               	btfsc	status,2,c
  3147   001CBE  EF63  F00E         	goto	i2u9_41
  3148   001CC2  EF65  F00E         	goto	i2u9_40
  3149   001CC6                     i2u9_41:
  3150   001CC6  EF71  F00E         	goto	i2l1403
  3151   001CCA                     i2u9_40:
  3152   001CCA                     
  3153                           ;mcc_generated_files/pin_manager.c: 158:     {;mcc_generated_files/pin_manager.c: 159:  
      +                                 IOCAF5_InterruptHandler();
  3154   001CCA  D802               	call	i2u10_48
  3155   001CCC  EF71  F00E         	goto	i2u10_49
  3156   001CD0                     i2u10_48:
  3157   001CD0  0005               	push	
  3158   001CD2  6EFA               	movwf	pclath,c
  3159   001CD4  503A               	movf	_IOCAF5_InterruptHandler^0,w,c
  3160   001CD6  6EFD               	movwf	tosl,c
  3161   001CD8  503B               	movf	(_IOCAF5_InterruptHandler+1)^0,w,c
  3162   001CDA  6EFE               	movwf	tosh,c
  3163   001CDC  6AFF               	clrf	tosu,c
  3164   001CDE  50FA               	movf	pclath,w,c
  3165   001CE0  0012               	return		;indir
  3166   001CE2                     i2u10_49:
  3167   001CE2                     i2l1403:
  3168                           
  3169                           ;mcc_generated_files/pin_manager.c: 161:     IOCAFbits.IOCAF5 = 0;
  3170   001CE2  013A               	movlb	58	; () banked
  3171   001CE4  9B47               	bcf	71,5,b	;volatile
  3172   001CE6                     
  3173                           ; BSR set to: 58
  3174   001CE6  0012               	return		;funcret
  3175   001CE8                     __end_of_IOCAF5_ISR:
  3176                           	callstack 0
  3177                           
  3178 ;; *************** function _IOCAF5_DefaultInterruptHandler *****************
  3179 ;; Defined at:
  3180 ;;		line 174 in file "mcc_generated_files/pin_manager.c"
  3181 ;; Parameters:    Size  Location     Type
  3182 ;;		None
  3183 ;; Auto vars:     Size  Location     Type
  3184 ;;		None
  3185 ;; Return value:  Size  Location     Type
  3186 ;;                  1    wreg      void 
  3187 ;; Registers used:
  3188 ;;		None
  3189 ;; Tracked objects:
  3190 ;;		On entry : 0/0
  3191 ;;		On exit  : 0/0
  3192 ;;		Unchanged: 0/0
  3193 ;; Data sizes:     COMRAM   BANK0   BANK1   BANK2   BANK3   BANK4   BANK5   BANK6   BANK7   BANK8   BANK9  BANK10  BANK1
      +1  BANK12  BANK13  BANK14  BANK15
  3194 ;;      Params:         0       0       0       0       0       0       0       0       0       0       0       0       
      +0       0       0       0       0
  3195 ;;      Locals:         0       0       0       0       0       0       0       0       0       0       0       0       
      +0       0       0       0       0
  3196 ;;      Temps:          0       0       0       0       0       0       0       0       0       0       0       0       
      +0       0       0       0       0
  3197 ;;      Totals:         0       0       0       0       0       0       0       0       0       0       0       0       
      +0       0       0       0       0
  3198 ;;Total ram usage:        0 bytes
  3199 ;; Hardware stack levels used: 1
  3200 ;; This function calls:
  3201 ;;		Nothing
  3202 ;; This function is called by:
  3203 ;;		_PIN_MANAGER_Initialize
  3204 ;;		_IOCAF5_ISR
  3205 ;; This function uses a non-reentrant model
  3206 ;;
  3207                           
  3208                           	psect	text18
  3209   001DB8                     __ptext18:
  3210                           	callstack 0
  3211   001DB8                     _IOCAF5_DefaultInterruptHandler:
  3212                           	callstack 24
  3213   001DB8  0012               	return		;funcret
  3214   001DBA                     __end_of_IOCAF5_DefaultInterruptHandler:
  3215                           	callstack 0
  3216                           
  3217 ;; *************** function _SS_InterruptHandler *****************
  3218 ;; Defined at:
  3219 ;;		line 54 in file "main.c"
  3220 ;; Parameters:    Size  Location     Type
  3221 ;;		None
  3222 ;; Auto vars:     Size  Location     Type
  3223 ;;  data_RX         1    0        unsigned char 
  3224 ;; Return value:  Size  Location     Type
  3225 ;;                  1    wreg      void 
  3226 ;; Registers used:
  3227 ;;		wreg, status,2, cstack
  3228 ;; Tracked objects:
  3229 ;;		On entry : 0/0
  3230 ;;		On exit  : 0/0
  3231 ;;		Unchanged: 0/0
  3232 ;; Data sizes:     COMRAM   BANK0   BANK1   BANK2   BANK3   BANK4   BANK5   BANK6   BANK7   BANK8   BANK9  BANK10  BANK1
      +1  BANK12  BANK13  BANK14  BANK15
  3233 ;;      Params:         0       0       0       0       0       0       0       0       0       0       0       0       
      +0       0       0       0       0
  3234 ;;      Locals:         0       0       0       0       0       0       0       0       0       0       0       0       
      +0       0       0       0       0
  3235 ;;      Temps:          0       0       0       0       0       0       0       0       0       0       0       0       
      +0       0       0       0       0
  3236 ;;      Totals:         0       0       0       0       0       0       0       0       0       0       0       0       
      +0       0       0       0       0
  3237 ;;Total ram usage:        0 bytes
  3238 ;; Hardware stack levels used: 1
  3239 ;; Hardware stack levels required when called: 1
  3240 ;; This function calls:
  3241 ;;		_SPI1_WriteByte
  3242 ;; This function is called by:
  3243 ;;		_main
  3244 ;;		_IOCAF5_ISR
  3245 ;; This function uses a non-reentrant model
  3246 ;;
  3247                           
  3248                           	psect	text19
  3249   001D40                     __ptext19:
  3250                           	callstack 0
  3251   001D40                     _SS_InterruptHandler:
  3252                           	callstack 23
  3253   001D40                     
  3254                           ;main.c: 55:    LATCbits.LC2 = 1;
  3255   001D40  84BC               	bsf	188,2,c	;volatile
  3256                           
  3257                           ;main.c: 56:     if(!PORTAbits.RA5){
  3258   001D42  BACA               	btfsc	202,5,c	;volatile
  3259   001D44  EFA6  F00E         	goto	i2u1_41
  3260   001D48  EFA8  F00E         	goto	i2u1_40
  3261   001D4C                     i2u1_41:
  3262   001D4C  EFAC  F00E         	goto	i2l547
  3263   001D50                     i2u1_40:
  3264   001D50                     
  3265                           ;main.c: 57:         LATCbits.LC2 = 1;
  3266   001D50  84BC               	bsf	188,2,c	;volatile
  3267   001D52                     
  3268                           ;main.c: 60:         SPI1_WriteByte(0xFF);
  3269   001D52  0EFF               	movlw	255
  3270   001D54  ECD7  F00E         	call	_SPI1_WriteByte
  3271   001D58                     i2l547:
  3272   001D58  0012               	return		;funcret
  3273   001D5A                     __end_of_SS_InterruptHandler:
  3274                           	callstack 0
  3275                           
  3276 ;; *************** function _SPI1_WriteByte *****************
  3277 ;; Defined at:
  3278 ;;		line 139 in file "mcc_generated_files/spi1.c"
  3279 ;; Parameters:    Size  Location     Type
  3280 ;;  byte            1    wreg     unsigned char 
  3281 ;; Auto vars:     Size  Location     Type
  3282 ;;  byte            1    0[COMRAM] unsigned char 
  3283 ;; Return value:  Size  Location     Type
  3284 ;;                  1    wreg      void 
  3285 ;; Registers used:
  3286 ;;		wreg
  3287 ;; Tracked objects:
  3288 ;;		On entry : 0/0
  3289 ;;		On exit  : 0/0
  3290 ;;		Unchanged: 0/0
  3291 ;; Data sizes:     COMRAM   BANK0   BANK1   BANK2   BANK3   BANK4   BANK5   BANK6   BANK7   BANK8   BANK9  BANK10  BANK1
      +1  BANK12  BANK13  BANK14  BANK15
  3292 ;;      Params:         0       0       0       0       0       0       0       0       0       0       0       0       
      +0       0       0       0       0
  3293 ;;      Locals:         1       0       0       0       0       0       0       0       0       0       0       0       
      +0       0       0       0       0
  3294 ;;      Temps:          0       0       0       0       0       0       0       0       0       0       0       0       
      +0       0       0       0       0
  3295 ;;      Totals:         1       0       0       0       0       0       0       0       0       0       0       0       
      +0       0       0       0       0
  3296 ;;Total ram usage:        1 bytes
  3297 ;; Hardware stack levels used: 1
  3298 ;; This function calls:
  3299 ;;		Nothing
  3300 ;; This function is called by:
  3301 ;;		_SS_InterruptHandler
  3302 ;; This function uses a non-reentrant model
  3303 ;;
  3304                           
  3305                           	psect	text20
  3306   001DAE                     __ptext20:
  3307                           	callstack 0
  3308   001DAE                     _SPI1_WriteByte:
  3309                           	callstack 23
  3310                           
  3311                           ;incstack = 0
  3312                           ;SPI1_WriteByte@byte stored from wreg
  3313   001DAE  6E01               	movwf	SPI1_WriteByte@byte^0,c
  3314   001DB0                     
  3315                           ;mcc_generated_files/spi1.c: 139: void SPI1_WriteByte(uint8_t byte);mcc_generated_files/
      +                          spi1.c: 140: {;mcc_generated_files/spi1.c: 141:     SPI1TXB = byte;
  3316   001DB0  0060  F007  FD11   	movff	SPI1_WriteByte@byte,15633	;volatile
  3317   001DB6  0012               	return		;funcret
  3318   001DB8                     __end_of_SPI1_WriteByte:
  3319                           	callstack 0
  3320                           
  3321                           ;
  3322                           ; Interrupt Vector Table @ 0x8
  3323                           ;
  3324                           
  3325                           	psect	ivt0x8
  3326   000008                     __pivt0x8:
  3327                           	callstack 0
  3328   000008                     ivt0x8_base:
  3329                           	callstack 0
  3330                           
  3331                           ; high-priority vector
  3332   000008  EF3C  F00E         	goto	_INTERRUPT_InterruptManager
  3333   000018                     	org	16
  3334                           
  3335                           ; low-priority vector
  3336   000018  00FF               	reset	
  3337                           
  3338                           	psect	text21
  3339   000000                     __ptext21:
  3340                           	callstack 0
  3341   000000                     
  3342                           	psect	rparam
  3343   000000                     
  3344                           	psect	idloc
  3345                           
  3346                           ;Config register IDLOC0 @ 0x200000
  3347                           ;	unspecified, using default values
  3348   200000                     	org	2097152
  3349   200000  FFFF               	dw	65535
  3350                           
  3351                           ;Config register IDLOC1 @ 0x200002
  3352                           ;	unspecified, using default values
  3353   200002                     	org	2097154
  3354   200002  FFFF               	dw	65535
  3355                           
  3356                           ;Config register IDLOC2 @ 0x200004
  3357                           ;	unspecified, using default values
  3358   200004                     	org	2097156
  3359   200004  FFFF               	dw	65535
  3360                           
  3361                           ;Config register IDLOC3 @ 0x200006
  3362                           ;	unspecified, using default values
  3363   200006                     	org	2097158
  3364   200006  FFFF               	dw	65535
  3365                           
  3366                           ;Config register IDLOC4 @ 0x200008
  3367                           ;	unspecified, using default values
  3368   200008                     	org	2097160
  3369   200008  FFFF               	dw	65535
  3370                           
  3371                           ;Config register IDLOC5 @ 0x20000A
  3372                           ;	unspecified, using default values
  3373   20000A                     	org	2097162
  3374   20000A  FFFF               	dw	65535
  3375                           
  3376                           ;Config register IDLOC6 @ 0x20000C
  3377                           ;	unspecified, using default values
  3378   20000C                     	org	2097164
  3379   20000C  FFFF               	dw	65535
  3380                           
  3381                           ;Config register IDLOC7 @ 0x20000E
  3382                           ;	unspecified, using default values
  3383   20000E                     	org	2097166
  3384   20000E  FFFF               	dw	65535
  3385                           
  3386                           	psect	config
  3387                           
  3388                           ;Config register CONFIG1L @ 0x300000
  3389                           ;	External Oscillator Selection
  3390                           ;	FEXTOSC = OFF, Oscillator not enabled
  3391                           ;	Reset Oscillator Selection
  3392                           ;	RSTOSC = HFINTOSC_1MHZ, HFINTOSC with HFFRQ = 4 MHz and CDIV = 4:1
  3393   300000                     	org	3145728
  3394   300000  EC                 	db	236
  3395                           
  3396                           ;Config register CONFIG1H @ 0x300001
  3397                           ;	Clock out Enable bit
  3398                           ;	CLKOUTEN = OFF, CLKOUT function is disabled
  3399                           ;	PRLOCKED One-Way Set Enable bit
  3400                           ;	PR1WAY = ON, PRLOCK bit can be cleared and set only once
  3401                           ;	Clock Switch Enable bit
  3402                           ;	CSWEN = ON, Writing to NOSC and NDIV is allowed
  3403                           ;	Fail-Safe Clock Monitor Enable bit
  3404                           ;	FCMEN = ON, Fail-Safe Clock Monitor enabled
  3405   300001                     	org	3145729
  3406   300001  FF                 	db	255
  3407                           
  3408                           ;Config register CONFIG2L @ 0x300002
  3409                           ;	MCLR Enable bit
  3410                           ;	MCLRE = EXTMCLR, If LVP = 0, MCLR pin is MCLR; If LVP = 1, RE3 pin function is MCLR
  3411                           ;	Power-up timer selection bits
  3412                           ;	PWRTS = PWRT_OFF, PWRT is disabled
  3413                           ;	Multi-vector enable bit
  3414                           ;	MVECEN = OFF, Interrupt contoller does not use vector table to prioritze interrupts
  3415                           ;	IVTLOCK bit One-way set enable bit
  3416                           ;	IVT1WAY = ON, IVTLOCK bit can be cleared and set only once
  3417                           ;	Low Power BOR Enable bit
  3418                           ;	LPBOREN = OFF, ULPBOR disabled
  3419                           ;	Brown-out Reset Enable bits
  3420                           ;	BOREN = SBORDIS, Brown-out Reset enabled , SBOREN bit is ignored
  3421   300002                     	org	3145730
  3422   300002  F7                 	db	247
  3423                           
  3424                           ;Config register CONFIG2H @ 0x300003
  3425                           ;	Brown-out Reset Voltage Selection bits
  3426                           ;	BORV = VBOR_2P45, Brown-out Reset Voltage (VBOR) set to 2.45V
  3427                           ;	ZCD Disable bit
  3428                           ;	ZCD = OFF, ZCD disabled. ZCD can be enabled by setting the ZCDSEN bit of ZCDCON
  3429                           ;	PPSLOCK bit One-Way Set Enable bit
  3430                           ;	PPS1WAY = ON, PPSLOCK bit can be cleared and set only once; PPS registers remain locke
      +                          d after one clear/set cycle
  3431                           ;	Stack Full/Underflow Reset Enable bit
  3432                           ;	STVREN = ON, Stack full/underflow will cause Reset
  3433                           ;	Debugger Enable bit
  3434                           ;	DEBUG = OFF, Background debugger disabled
  3435                           ;	Extended Instruction Set Enable bit
  3436                           ;	XINST = OFF, Extended Instruction Set and Indexed Addressing Mode disabled
  3437   300003                     	org	3145731
  3438   300003  FF                 	db	255
  3439                           
  3440                           ;Config register CONFIG3L @ 0x300004
  3441                           ;	WDT Period selection bits
  3442                           ;	WDTCPS = WDTCPS_31, Divider ratio 1:65536; software control of WDTPS
  3443                           ;	WDT operating mode
  3444                           ;	WDTE = OFF, WDT Disabled; SWDTEN is ignored
  3445   300004                     	org	3145732
  3446   300004  9F                 	db	159
  3447                           
  3448                           ;Config register CONFIG3H @ 0x300005
  3449                           ;	WDT Window Select bits
  3450                           ;	WDTCWS = WDTCWS_7, window always open (100%); software control; keyed access not requi
      +                          red
  3451                           ;	WDT input clock selector
  3452                           ;	WDTCCS = SC, Software Control
  3453   300005                     	org	3145733
  3454   300005  FF                 	db	255
  3455                           
  3456                           ;Config register CONFIG4L @ 0x300006
  3457                           ;	Boot Block Size selection bits
  3458                           ;	BBSIZE = BBSIZE_512, Boot Block size is 512 words
  3459                           ;	Boot Block enable bit
  3460                           ;	BBEN = OFF, Boot block disabled
  3461                           ;	Storage Area Flash enable bit
  3462                           ;	SAFEN = OFF, SAF disabled
  3463                           ;	Application Block write protection bit
  3464                           ;	WRTAPP = OFF, Application Block not write protected
  3465   300006                     	org	3145734
  3466   300006  FF                 	db	255
  3467                           
  3468                           ;Config register CONFIG4H @ 0x300007
  3469                           ;	Boot Block Write Protection bit
  3470                           ;	WRTB = OFF, Boot Block not write-protected
  3471                           ;	Configuration Register Write Protection bit
  3472                           ;	WRTC = OFF, Configuration registers (300000-30000Bh) not write-protected
  3473                           ;	Data EEPROM Write Protection bit
  3474                           ;	WRTD = OFF, Data EEPROM not write-protected
  3475                           ;	SAF Write protection bit
  3476                           ;	WRTSAF = OFF, SAF not Write Protected
  3477                           ;	Low Voltage Programming Enable bit
  3478                           ;	LVP = ON, Low voltage programming enabled. MCLR/VPP pin function is MCLR. MCLRE config
      +                          uration bit is ignored
  3479   300007                     	org	3145735
  3480   300007  FF                 	db	255
  3481                           
  3482                           ;Config register CONFIG5L @ 0x300008
  3483                           ;	PFM and Data EEPROM Code Protection bit
  3484                           ;	CP = OFF, PFM and Data EEPROM code protection disabled
  3485   300008                     	org	3145736
  3486   300008  FF                 	db	255
  3487                           
  3488                           ;Config register CONFIG5H @ 0x300009
  3489                           ;	unspecified, using default values
  3490   300009                     	org	3145737
  3491   300009  FF                 	db	255
  3492                           tosu	equ	0x3FFF
  3493                           tosh	equ	0x3FFE
  3494                           tosl	equ	0x3FFD
  3495                           stkptr	equ	0x3FFC
  3496                           pclatu	equ	0x3FFB
  3497                           pclath	equ	0x3FFA
  3498                           pcl	equ	0x3FF9
  3499                           tblptru	equ	0x3FF8
  3500                           tblptrh	equ	0x3FF7
  3501                           tblptrl	equ	0x3FF6
  3502                           tablat	equ	0x3FF5
  3503                           prodh	equ	0x3FF4
  3504                           prodl	equ	0x3FF3
  3505                           indf0	equ	0x3FEF
  3506                           postinc0	equ	0x3FEE
  3507                           postdec0	equ	0x3FED
  3508                           preinc0	equ	0x3FEC
  3509                           plusw0	equ	0x3FEB
  3510                           fsr0h	equ	0x3FEA
  3511                           fsr0l	equ	0x3FE9
  3512                           wreg	equ	0x3FE8
  3513                           indf1	equ	0x3FE7
  3514                           postinc1	equ	0x3FE6
  3515                           postdec1	equ	0x3FE5
  3516                           preinc1	equ	0x3FE4
  3517                           plusw1	equ	0x3FE3
  3518                           fsr1h	equ	0x3FE2
  3519                           fsr1l	equ	0x3FE1
  3520                           bsr	equ	0x3FE0
  3521                           indf2	equ	0x3FDF
  3522                           postinc2	equ	0x3FDE
  3523                           postdec2	equ	0x3FDD
  3524                           preinc2	equ	0x3FDC
  3525                           plusw2	equ	0x3FDB
  3526                           fsr2h	equ	0x3FDA
  3527                           fsr2l	equ	0x3FD9
  3528                           status	equ	0x3FD8

Data Sizes:
    Strings     0
    Constant    14
    Data        0
    BSS         0
    Persistent  2
    Stack       0

Auto Spaces:
    Space          Size  Autos    Used
    COMRAM           95     57      59
    BANK0           160      0       0
    BANK1           256      0       0
    BANK2           256      0       0
    BANK3           256      0       0
    BANK4           256      0       0
    BANK5           256      0       0
    BANK6           256      0       0
    BANK7           256      0       0
    BANK8           256      0       0
    BANK9           256      0       0
    BANK10          256      0       0
    BANK11          256      0       0
    BANK12          256      0       0
    BANK13          256      0       0
    BANK14          256      0       0
    BANK15          256      0       0

Pointer List with Targets:

    IOCAF5_SetInterruptHandler@InterruptHandler	PTR FTN()void  size(2) Largest target is 1
		 -> SS_InterruptHandler(), IOCAF5_DefaultInterruptHandler(), 

    IOCAF5_InterruptHandler	PTR FTN()void  size(2) Largest target is 1
		 -> SS_InterruptHandler(), Absolute function(), IOCAF5_DefaultInterruptHandler(), 

    convertCANid2Reg@passedInSIDH	PTR unsigned char  size(2) Largest target is 1
		 -> CAN_transmit@tempSIDH(COMRAM[1]), 

    convertCANid2Reg@passedInSIDL	PTR unsigned char  size(2) Largest target is 1
		 -> CAN_transmit@tempSIDL(COMRAM[1]), 

    convertCANid2Reg@passedInEIDH	PTR unsigned char  size(2) Largest target is 1
		 -> CAN_transmit@tempEIDH(COMRAM[1]), 

    convertCANid2Reg@passedInEIDL	PTR unsigned char  size(2) Largest target is 1
		 -> CAN_transmit@tempEIDL(COMRAM[1]), 

    CAN_receive@tempCanMsg	PTR struct . size(2) Largest target is 14
		 -> main@ReceiveMsg(COMRAM[14]), 

    CAN_transmit@tempCanMsg	PTR struct . size(2) Largest target is 14
		 -> main@SendMsg(COMRAM[14]), 


Critical Paths under _main in COMRAM

    _main->_CAN_transmit
    _PIN_MANAGER_Initialize->_IOCAF5_SetInterruptHandler
    _CAN_transmit->_convertCANid2Reg
    _CAN_receive->_convertReg2ExtendedCANid

Critical Paths under _INTERRUPT_InterruptManager in COMRAM

    _SS_InterruptHandler->_SPI1_WriteByte

Critical Paths under _main in BANK0

    None.

Critical Paths under _INTERRUPT_InterruptManager in BANK0

    None.

Critical Paths under _main in BANK1

    None.

Critical Paths under _INTERRUPT_InterruptManager in BANK1

    None.

Critical Paths under _main in BANK2

    None.

Critical Paths under _INTERRUPT_InterruptManager in BANK2

    None.

Critical Paths under _main in BANK3

    None.

Critical Paths under _INTERRUPT_InterruptManager in BANK3

    None.

Critical Paths under _main in BANK4

    None.

Critical Paths under _INTERRUPT_InterruptManager in BANK4

    None.

Critical Paths under _main in BANK5

    None.

Critical Paths under _INTERRUPT_InterruptManager in BANK5

    None.

Critical Paths under _main in BANK6

    None.

Critical Paths under _INTERRUPT_InterruptManager in BANK6

    None.

Critical Paths under _main in BANK7

    None.

Critical Paths under _INTERRUPT_InterruptManager in BANK7

    None.

Critical Paths under _main in BANK8

    None.

Critical Paths under _INTERRUPT_InterruptManager in BANK8

    None.

Critical Paths under _main in BANK9

    None.

Critical Paths under _INTERRUPT_InterruptManager in BANK9

    None.

Critical Paths under _main in BANK10

    None.

Critical Paths under _INTERRUPT_InterruptManager in BANK10

    None.

Critical Paths under _main in BANK11

    None.

Critical Paths under _INTERRUPT_InterruptManager in BANK11

    None.

Critical Paths under _main in BANK12

    None.

Critical Paths under _INTERRUPT_InterruptManager in BANK12

    None.

Critical Paths under _main in BANK13

    None.

Critical Paths under _INTERRUPT_InterruptManager in BANK13

    None.

Critical Paths under _main in BANK14

    None.

Critical Paths under _INTERRUPT_InterruptManager in BANK14

    None.

Critical Paths under _main in BANK15

    None.

Critical Paths under _INTERRUPT_InterruptManager in BANK15

    None.

Call Graph Tables:

 ---------------------------------------------------------------------------------
 (Depth) Function   	        Calls       Base Space   Used Autos Params    Refs
 ---------------------------------------------------------------------------------
 (0) _main                                                31    31      0    5698
                                             27 COMRAM    30    30      0
                        _CAN_receive
                       _CAN_transmit
         _IOCAF5_SetInterruptHandler
                          _SPI1_Open
                  _SYSTEM_Initialize
 ---------------------------------------------------------------------------------
 (1) _SYSTEM_Initialize                                    0     0      0     174
                    _ECAN_Initialize
               _INTERRUPT_Initialize
              _OSCILLATOR_Initialize
             _PIN_MANAGER_Initialize
                     _PMD_Initialize
                    _SPI1_Initialize
 ---------------------------------------------------------------------------------
 (2) _SPI1_Initialize                                      0     0      0       0
 ---------------------------------------------------------------------------------
 (2) _PMD_Initialize                                       0     0      0       0
 ---------------------------------------------------------------------------------
 (2) _PIN_MANAGER_Initialize                               0     0      0     174
         _IOCAF5_SetInterruptHandler
 ---------------------------------------------------------------------------------
 (3) _IOCAF5_SetInterruptHandler                           2     0      2     174
                                              3 COMRAM     2     0      2
 ---------------------------------------------------------------------------------
 (2) _OSCILLATOR_Initialize                                0     0      0       0
 ---------------------------------------------------------------------------------
 (2) _INTERRUPT_Initialize                                 0     0      0       0
 ---------------------------------------------------------------------------------
 (2) _ECAN_Initialize                                      1     1      0       0
                                              3 COMRAM     1     1      0
 ---------------------------------------------------------------------------------
 (1) _SPI1_Open                                            2     2      0      75
                                              3 COMRAM     2     2      0
 ---------------------------------------------------------------------------------
 (1) _CAN_transmit                                         7     5      2    3288
                                             21 COMRAM     6     4      2
                   _convertCANid2Reg
 ---------------------------------------------------------------------------------
 (2) _convertCANid2Reg                                    18     5     13    1928
                                              3 COMRAM    18     5     13
 ---------------------------------------------------------------------------------
 (1) _CAN_receive                                          3     1      2    1760
                                             22 COMRAM     3     1      2
           _convertReg2ExtendedCANid
           _convertReg2StandardCANid
 ---------------------------------------------------------------------------------
 (2) _convertReg2StandardCANid                            15    11      4     266
                                              3 COMRAM    15    11      4
 ---------------------------------------------------------------------------------
 (2) _convertReg2ExtendedCANid                            19    15      4     821
                                              3 COMRAM    19    15      4
 ---------------------------------------------------------------------------------
 Estimated maximum stack depth 3
 ---------------------------------------------------------------------------------
 (Depth) Function   	        Calls       Base Space   Used Autos Params    Refs
 ---------------------------------------------------------------------------------
 (4) _INTERRUPT_InterruptManager                           2     2      0      30
                                              1 COMRAM     2     2      0
                    _PIN_MANAGER_IOC
 ---------------------------------------------------------------------------------
 (5) _PIN_MANAGER_IOC                                      0     0      0      30
                         _IOCAF5_ISR
 ---------------------------------------------------------------------------------
 (6) _IOCAF5_ISR                                           0     0      0      30
                   Absolute function *
     _IOCAF5_DefaultInterruptHandler *
                _SS_InterruptHandler *
 ---------------------------------------------------------------------------------
 (7) _SS_InterruptHandler                                  1     1      0      30
                     _SPI1_WriteByte
 ---------------------------------------------------------------------------------
 (8) _SPI1_WriteByte                                       1     1      0      15
                                              0 COMRAM     1     1      0
 ---------------------------------------------------------------------------------
 (7) _IOCAF5_DefaultInterruptHandler                       0     0      0       0
 ---------------------------------------------------------------------------------
 (7) Absolute function(Fake)                               0     0      0       0
 ---------------------------------------------------------------------------------
 Estimated maximum stack depth 8
 ---------------------------------------------------------------------------------

 Call Graph Graphs:

 _main (ROOT)
   _CAN_receive
     _convertReg2ExtendedCANid
     _convertReg2StandardCANid
   _CAN_transmit
     _convertCANid2Reg
   _IOCAF5_SetInterruptHandler
   _SPI1_Open
   _SYSTEM_Initialize
     _ECAN_Initialize
     _INTERRUPT_Initialize
     _OSCILLATOR_Initialize
     _PIN_MANAGER_Initialize
       _IOCAF5_SetInterruptHandler
     _PMD_Initialize
     _SPI1_Initialize

 _INTERRUPT_InterruptManager (ROOT)
   _PIN_MANAGER_IOC
     _IOCAF5_ISR
       Absolute function(Fake) *
       _IOCAF5_DefaultInterruptHandler *
       _SS_InterruptHandler *
         _SPI1_WriteByte

 Address spaces:
Name               Size   Autos  Total    Cost      Usage
BITCOMRAM           5F      0       0       0        0.0%
EEDATA             400      0       0       0        0.0%
NULL                 0      0       0       0        0.0%
CODE                 0      0       0       0        0.0%
COMRAM              5F     39      3B       1       62.1%
STACK                0      0       0       2        0.0%
DATA                 0      0      3B       3        0.0%
BITBANK0            A0      0       0       4        0.0%
BANK0               A0      0       0       5        0.0%
BITBANK1           100      0       0       6        0.0%
BANK1              100      0       0       7        0.0%
BITBANK2           100      0       0       8        0.0%
BANK2              100      0       0       9        0.0%
BITBANK3           100      0       0      10        0.0%
BANK3              100      0       0      11        0.0%
BITBANK4           100      0       0      12        0.0%
BANK4              100      0       0      13        0.0%
BITBANK5           100      0       0      14        0.0%
BANK5              100      0       0      15        0.0%
BITBANK6           100      0       0      16        0.0%
BANK6              100      0       0      17        0.0%
BITBANK7           100      0       0      18        0.0%
BANK7              100      0       0      19        0.0%
BITBANK8           100      0       0      20        0.0%
BANK8              100      0       0      21        0.0%
BITBANK9           100      0       0      22        0.0%
BANK9              100      0       0      23        0.0%
BITBANK10          100      0       0      24        0.0%
BANK10             100      0       0      25        0.0%
BITBANK11          100      0       0      26        0.0%
BANK11             100      0       0      27        0.0%
BITBANK12          100      0       0      28        0.0%
BANK12             100      0       0      29        0.0%
BITBANK13          100      0       0      30        0.0%
BANK13             100      0       0      31        0.0%
BITBANK14          100      0       0      32        0.0%
BANK14             100      0       0      33        0.0%
BITBANK15          100      0       0      34        0.0%
BANK15             100      0       0      35        0.0%
BITBIGSFRhhhh       2D      0       0      36        0.0%
BITBIGSFRhhhlh       7      0       0      37        0.0%
BITBIGSFRhhhll       5      0       0      38        0.0%
BITBIGSFRhhlhl       5      0       0      39        0.0%
BITBIGSFRhhll       28      0       0      40        0.0%
BITBIGSFRlhhhlh    263      0       0      41        0.0%
BITBIGSFRlhhhlh      1      0       0      42        0.0%
BITBIGSFRlhhhlh      2      0       0      43        0.0%
BITBIGSFRlhhhlh      1      0       0      44        0.0%
BITBIGSFRlhhhlh    222      0       0      45        0.0%
BITBIGSFRlhhhlh      A      0       0      46        0.0%
BITBIGSFRlhhhlh     5B      0       0      47        0.0%
BITBIGSFRlhhhlh      2      0       0      48        0.0%
BITBIGSFRlhhhlh     1C      0       0      49        0.0%
BITBIGSFRlhhhlh      B      0       0      50        0.0%
BITBIGSFRlhhhlh      8      0       0      51        0.0%
BITBIGSFRlhhhlh     2A      0       0      52        0.0%
BITBIGSFRlhhhlh      A      0       0      53        0.0%
BITBIGSFRlhhhlh     2A      0       0      54        0.0%
BITBIGSFRlhhhlh      1      0       0      55        0.0%
BITBIGSFRlhhhlh      1      0       0      56        0.0%
BITBIGSFRlhhhll     11      0       0      57        0.0%
BITBIGSFRlhhhll     1A      0       0      58        0.0%
BITBIGSFRlhhlhh      2      0       0      59        0.0%
BITBIGSFRlhhlhl      1      0       0      60        0.0%
BITBIGSFRlhhlhl      A      0       0      61        0.0%
BITBIGSFRlhhllh      4      0       0      62        0.0%
BITBIGSFRlhhllh    192      0       0      63        0.0%
BITBIGSFRlhhllh      2      0       0      64        0.0%
BITBIGSFRlhhlll      2      0       0      65        0.0%
BITBIGSFRlhhlll      2      0       0      66        0.0%
BITBIGSFRlllllh     9A      0       0      67        0.0%
BITBIGSFRllllll      2      0       0      68        0.0%
ABS                  0      0      3B      69        0.0%
BIGRAM             FFF      0       0      70        0.0%
BIGSFR               0      0       0     200        0.0%
BITSFR_9             0      0       0     200        0.0%
SFR_9                0      0       0     200        0.0%
BITSFR_8             0      0       0     200        0.0%
SFR_8                0      0       0     200        0.0%
BITSFR_7             0      0       0     200        0.0%
SFR_7                0      0       0     200        0.0%
BITSFR_6             0      0       0     200        0.0%
SFR_6                0      0       0     200        0.0%
BITSFR_5             0      0       0     200        0.0%
SFR_5                0      0       0     200        0.0%
BITSFR_4             0      0       0     200        0.0%
SFR_4                0      0       0     200        0.0%
BITSFR_3             0      0       0     200        0.0%
SFR_3                0      0       0     200        0.0%
BITSFR_2             0      0       0     200        0.0%
SFR_2                0      0       0     200        0.0%
BITSFR_1             0      0       0     200        0.0%
SFR_1                0      0       0     200        0.0%
BITSFR               0      0       0     200        0.0%
SFR                  0      0       0     200        0.0%


Microchip Technology PIC18 Macro Assembler V2.40 build 20220703182018 
Symbol Table                                                                                   Sun May  7 20:10:17 2023

                               SPI1_WriteByte@byte 0001                                                 u20 1908  
                                               u21 1904                                                 u30 19CC  
                                               u31 19C8                                        main@SendMsg 001E  
                                              l250 124E                                                l332 1D24  
                                              l253 1364                                                l263 161C  
                                              l239 19CC                                                l511 1DAC  
                                              l335 1D70                                                l256 14C2  
                                              l248 1138                                                l249 1364  
                                              l338 1D0A                                                l283 18EE  
                                              l291 17B4                                                l365 1D3E  
                                              l286 1C76                                                l369 1AA8  
                                              l486 1BFE                                                l497 1DA2  
                                              u400 1030                                                u401 102C  
                                              u410 1146                                                u411 1142  
                                              u420 125C                                                u180 19E0  
                                              u421 1258                                                u181 19DC  
                                              u430 1378                                                u350 1630  
                                              u431 1374                                                u351 162C  
                                              u440 1386                                                u441 1382  
                                              u450 14D2                                                u451 14CE  
                                              u507 1B30                                                u460 14E0  
                                              u461 14DC                                                u365 16C8  
                                              u517 1B62                                                u470 1B0A  
                                              u375 177E                                                u471 1B06  
                                              u480 1B50                                                u385 182A  
                                              u481 1B4C                                                u395 1C34  
                                              u497 1B16                                                tosl 003FFD  
                                              wreg 003FE8                 __end_of_IOCAF5_SetInterruptHandler 1DA4  
                       _IOCAF5_SetInterruptHandler 1D9A                         ??_convertReg2StandardCANid 0008  
                                             l2001 15B8                                               l2011 1612  
                                             l2003 15CA                                               l2005 15DC  
                                             l2021 1D10                                               l2007 15EE  
                                             l2015 161A                                               l2023 1D14  
                                             l2031 1AAA                                               l2009 1600  
                                             l2025 1D18                                               l2041 1AD6  
                                             l2033 1ABA                                               l2027 1D1C  
                                             l2019 1D0C                                               l2051 1AE2  
                                             l2043 1ADA                                               l2035 1ABE  
                                             l1261 19A2                                               l1253 18F0  
                                             l2029 1D20                                               l2061 1B3E  
                                             l2053 1AEE                                               l2045 1ADA  
                                             l2037 1AC2                                               l1271 19AC  
                                             l1263 19A4                                               l1255 18F4  
                                             l2071 1B72                                               l2063 1B50  
                                             l2055 1B0A                                               l2047 1ADE  
                                             l2039 1AD2                                               l1273 19AE  
                                             l1265 19A6                                               l1257 1908  
                                             l2065 1B56                                               l2057 1B0C  
                                             l2049 1AE0                                               l1275 19B4  
                                             l1267 19A8                                               l1259 199E  
                                             l2067 1B58                                               l2059 1B24  
                                             l1269 19AA                                               l2069 1B70  
                                             l1391 1CE8                                               l1393 1D5A  
                                             l1731 1D9A                                               l1811 1BBE  
                                             l1803 1B7A                                               l1395 1D26  
                                             l1741 1670                                               l1733 161E  
                                             l1901 1208                                               l1389 1DA4  
                                             l1821 1BC8                                               l1813 1BC0  
                                             l1805 1B86                                               l1397 1D3C  
                                             l1751 16F6                                               l1743 16B0  
                                             l1735 161E                                               l1903 1218  
                                             l1591 19D0                                               l1831 1BE0  
                                             l1823 1BCE                                               l1815 1BC2  
                                             l1807 1B90                                               l1761 179E  
                                             l1753 1708                                               l1745 16B6  
                                             l1737 1630                                               l1921 12C6  
                                             l1913 125C                                               l1905 1228  
                                             l1593 19E0                                               l1841 1BF6  
                                             l1833 1BE4                                               l1825 1BD0  
                                             l1817 1BC4                                               l1809 1B98  
                                             l1771 17CE                                               l1755 1736  
                                             l1747 16E8                                               l1739 1642  
                                             l1931 130E                                               l1923 12CC  
                                             l1915 12B4                                               l1907 1238  
                                             l1851 1088                                               l1595 1AA6  
                                             l1843 1BFA                                               l1835 1BEA  
                                             l1827 1BD2                                               l1819 1BC6  
                                             l1781 1880                                               l1773 17D6  
                                             l1749 16F0                                               l1757 174C  
                                             l1941 135E                                               l1933 131E  
                                             l1925 12DE                                               l1917 12BA  
                                             l1909 1248                                               l1861 10B2  
                                             l1853 108E                                               l1845 1010  
                                             l1837 1BEE                                               l1829 1BD4  
                                             l1783 1898                                               l1775 1800  
                                             l1767 17B8                                               l1791 1C02  
                                             l1951 1378                                               l1759 176C  
                                             l1935 132E                                               l1927 12EE  
                                             l1919 12C0                                               l1871 1102  
                                             l1863 10C2                                               l1855 1094  
                                             l1847 1020                                               l1839 1BF2  
                                             l1785 18CE                                               l1777 1818  
                                             l1769 17C8                                               l1793 1C02  
                                             l1961 1416                                               l1953 1386  
                                             l1937 133E                                               l1929 12FE  
                                             l1881 1146                                               l1873 1112  
                                             l1865 10D2                                               l1857 109A  
                                             l1849 1030                                               l1787 18DE  
                                             l1779 184A                                               l1795 1C2C  
                                             l1971 1470                                               l1963 1428  
                                             l1955 1396                                               l1947 1366  
                                             l1939 134E                                               l1891 11B6  
                                             l1883 119E                                               l1875 1122  
                                             l1867 10E2                                               l1859 10A0  
                                             l1797 1C56                                               l1981 14BA  
                                             l1973 1482                                               l1965 143A  
                                             l1957 13D6                                               l1949 136A  
                                             l1893 11C8                                               l1885 11A4  
                                             l1877 1132                                               l1869 10F2  
                                             l1799 1C66                                               l1991 1540  
                                             l1983 14D2                                               l1975 1494  
                                             l1967 144C                                               l1959 13E6  
                                             l1895 11D8                                               l1887 11AA  
                                             l1879 1134                                               l1993 1570  
                                             l1985 14E0                                               l1977 14A6  
                                             l1969 145E                                               l1897 11E8  
                                             l1889 11B0                                               l1995 1582  
                                             l1987 14F0                                               l1979 14B8  
                                             l1899 11F8                                               l1997 1594  
                                             l1989 1530                                               l1999 15A6  
                                             _LATA 003FBA                                               _LATB 003FBB  
                                             _LATC 003FBC                                               _PMD0 0039C0  
                                             _PMD1 0039C1                                               _PMD2 0039C2  
                                             _PMD3 0039C3                                               _PMD4 0039C4  
                                             _PMD5 0039C5                                               _PMD6 0039C6  
                                             _PMD7 0039C7                                               _WPUA 003A41  
                                             _WPUB 003A51                                               _WPUC 003A61  
                                             _WPUE 003A81                                               _main 1AAA  
                     convertCANid2Reg@passedInEIDH 0009                       convertCANid2Reg@passedInEIDL 000B  
                                             fsr2h 003FDA                                               indf2 003FDF  
                                             fsr2l 003FD9                       convertCANid2Reg@passedInSIDH 000D  
                     convertCANid2Reg@passedInSIDL 000F                                               prodh 003FF4  
                                             prodl 003FF3                                               start 001A  
                           fp__SS_InterruptHandler 0000                                       ___param_bank 000000  
                    __end_of_OSCILLATOR_Initialize 1D72                                              ?_main 0001  
                 SPI1_Open@spi1UniqueConfiguration 0005                                              i2l402 1DB6  
                                            i2l500 1DB8                                              i2l518 1CAA  
                                            i2l490 1D86                                              i2l547 1D58  
                                            i2l494 1CE6                                              _OSCEN 0039DD  
                                            _TRISA 003FC2                                              _TRISB 003FC3  
                                            _TRISC 003FC4                              CAN_receive@tempCanMsg 0017  
                                            _canId 100B                               __end_of_CAN_transmit 1366  
                          __end_of_PIN_MANAGER_IOC 1D88                                              pclath 003FFA  
                                            pclatu 003FFB                                              tablat 003FF5  
              convertReg2ExtendedCANid@ConvertedID 0013                                              status 003FD8  
                             CAN_transmit@tempEIDH 0018                               CAN_transmit@tempEIDL 0019  
                             CAN_transmit@tempSIDH 001A                               CAN_transmit@tempSIDL 001B  
                                   main@ReceiveMsg 002C                                    __initialization 1D88  
                                     __end_of_main 1B7A                        ?_INTERRUPT_InterruptManager 0001  
                                           ??_main 001C                                      __activetblptr 000003  
                                ??_ECAN_Initialize 0004                                             _CANCON 003F8F  
                                           _CIOCON 003700                                             _ANSELA 003A40  
                                           _ANSELB 003A50                                             _ANSELC 003A60  
                                           _RB2PPS 003A0A                                             _RC5PPS 003A15  
                                           _ODCONA 003A42                                             _ODCONB 003A52  
                                           _ODCONC 003A62                                             i2l1233 1DB0  
                                           i2l1241 1D52                                             i2l1401 1CCA  
                                           i2l1243 1D52                                             i2l1403 1CE2  
                                           i2l1237 1D40                                             i2l1239 1D50  
                                           i2l1603 1D72                                             i2l1605 1D82  
                                           i2l1399 1CB8                                             i2l1681 1C84  
                                           i2l1683 1C94                                             i2l1685 1CA2  
                                           i2l1687 1CA6                                             _INLVLA 003A44  
                                           _INLVLB 003A54                                             _INLVLC 003A64  
                                           _INLVLE 003A84                                             _OSCFRQ 0039DF  
                                           _RXB0D0 003F86                                             _RXB0D1 003F87  
                                           _RXB0D2 003F88                                             _RXB0D3 003F89  
                                           _RXB1D0 0037F6                                             _RXB0D4 003F8A  
                                           _RXB1D1 0037F7                                             _RXB0D5 003F8B  
                                           _RXB1D2 0037F8                                             _RXB0D6 003F8C  
                                           _RXB1D3 0037F9                                             _RXB0D7 003F8D  
                                           _RXB1D4 0037FA                                             _RXB1D5 0037FB  
                                           _RXB1D6 0037FC                                             _RXB1D7 0037FD  
                                           _TXB0D0 0037E6                                             _TXB0D1 0037E7  
                                           _TXB0D2 0037E8                                             _TXB0D3 0037E9  
                                           _TXB1D0 0037D6                                             _TXB0D4 0037EA  
                                           _TXB1D1 0037D7                                             _TXB0D5 0037EB  
                                           _TXB1D2 0037D8                                             _TXB0D6 0037EC  
                                           _TXB1D3 0037D9                                             _TXB0D7 0037ED  
                                           _TXB2D0 0037C6                                             _TXB1D4 0037DA  
                                           _TXB2D1 0037C7                                             _TXB1D5 0037DB  
                                           _TXB2D2 0037C8                                             _TXB1D6 0037DC  
                                           _TXB2D3 0037C9                                             _TXB1D7 0037DD  
                                           _TXB2D4 0037CA                                             _TXB2D5 0037CB  
                                           _TXB2D6 0037CC                                             _TXB2D7 0037CD  
                                           i2u1_40 1D50                                             i2u1_41 1D4C  
                                           i2u9_40 1CCA                                             i2u9_41 1CC6  
                                __end_of_SPI1_Open 1AAA                                             isa$std 000001  
                                   _PMD_Initialize 1CE8                                       __mediumconst 0000  
                 __end_of_convertReg2StandardCANid 1C78                                             tblptrh 003FF7  
                                           tblptrl 003FF6                                             tblptru 003FF8  
       IOCAF5_SetInterruptHandler@InterruptHandler 0004                                   ?_PIN_MANAGER_IOC 0001  
                                     ??_IOCAF5_ISR 0002                                  _SYSTEM_Initialize 1D0C  
                                       __accesstop 0060                            __end_of__initialization 1D94  
                               ?_SYSTEM_Initialize 0001                           _convertReg2ExtendedCANid 17B6  
                           CAN_receive@returnValue 0019                                      ___rparam_used 000001  
                                   __pcstackCOMRAM 0001                                      __end_of_canId 100F  
                              ??_SYSTEM_Initialize 0006                                  ??_SPI1_Initialize 0004  
                           __end_of_PMD_Initialize 1D0C                                 __end_of_IOCAF5_ISR 1CE8  
                               _spi1_configuration 1001                        ?_IOCAF5_SetInterruptHandler 0004  
            convertReg2StandardCANid@tempRXBn_SIDH 000A              convertReg2StandardCANid@tempRXBn_SIDL 0004  
                        __end_of_SYSTEM_Initialize 1D26                                         __pnvCOMRAM 003A  
                                   _SPI1_WriteByte 1DAE                  fp__IOCAF5_DefaultInterruptHandler 0000  
                 ??_IOCAF5_DefaultInterruptHandler 0001                    ?_IOCAF5_DefaultInterruptHandler 0001  
                                          IVTBASEH 003FD6                                            IVTBASEL 003FD5  
                                          IVTBASEU 003FD7                            _IOCAF5_InterruptHandler 003A  
                                     _CAN_transmit 1010                                            _ECANCON 003F91  
                                          _CANSTAT 003F8E                                    ?_PMD_Initialize 0001  
                                          _BRGCON1 003703                                            _BRGCON2 003704  
                                          _BRGCON3 003705                                _SS_InterruptHandler 1D40  
                                          _OSCCON1 0039D9                                            _OSCCON3 0039DB  
                                          _SPI1CLK 003D1C                                            i2u10_48 1CD0  
                                          i2u10_49 1CE2                                            i2u20_40 1D82  
                                          i2u20_41 1D7E                                            i2u31_40 1C94  
                                          i2u31_41 1C90                                            i2u32_40 1CA2  
                                          i2u32_41 1C9E                                            _RXB0DLC 003F85  
                                          _SPI1RXB 003D10                                            _RXB1DLC 0037F5  
                                          _SPI1TXB 003D11                                            _OSCTUNE 0039DE  
                                          _TXB0DLC 0037E5                                            _SLRCONA 003A43  
                                          _SLRCONB 003A53                                            _SLRCONC 003A63  
                                          _TXB1DLC 0037D5                                            _TXB2DLC 0037C5  
                           __end_of_SPI1_WriteByte 1DB8                               ?_SS_InterruptHandler 0001  
                                          __Hparam 0000                                            __Lparam 0000  
                        ?_convertReg2StandardCANid 0004                                    _ECAN_Initialize 18F0  
                                     __psmallconst 1000                                            __pcinit 1D88  
                                          __ramtop 1000                                            __ptext0 1AAA  
                                          __ptext1 1D0C                                            __ptext2 1D26  
                                          __ptext3 1CE8                                            __ptext4 1B7A  
                                          __ptext5 1D9A                                            __ptext6 1D5A  
                                          __ptext7 1DA4                                            __ptext8 18F0  
                                          __ptext9 19CE                              _OSCILLATOR_Initialize 1D5A  
                                 _convertCANid2Reg 161E                           ??_PIN_MANAGER_Initialize 0006  
                                        _IOCAFbits 003A47                                          _IOCANbits 003A46  
                                        _IOCAPbits 003A45                               end_of_initialization 1D94  
                                  ?_SPI1_WriteByte 0001                              ??_SS_InterruptHandler 0002  
                                    ??_CAN_receive 0019                                          _SPI1TCNTL 003D12  
                                        _SPI1SSPPS 003AE2                                            postinc2 003FDE  
                                        _SPI1_Open 19CE                                          _PORTAbits 003FCA  
                                        _TRISCbits 003FC4                             CAN_transmit@tempCanMsg 0016  
                       ??_convertReg2ExtendedCANid 0008                                    _SPI1_Initialize 1D26  
                          __end_of_ECAN_Initialize 19CE                       __end_of_INTERRUPT_Initialize 1DAE  
                              __end_of_CAN_receive 161E                                         ?_SPI1_Open 0001  
                           ?_OSCILLATOR_Initialize 0001                                start_initialization 1D88  
                                       ivt0x8_base 0008                convertReg2StandardCANid@returnValue 000B  
                                 ??_PMD_Initialize 0004             __end_of_IOCAF5_DefaultInterruptHandler 1DBA  
                   _IOCAF5_DefaultInterruptHandler 1DB8                            __end_of_SPI1_Initialize 1D40  
                                      _CAN_receive 1366                                   ?_ECAN_Initialize 0001  
                           _PIN_MANAGER_Initialize 1B7A                           __end_of_convertCANid2Reg 17B6  
                                      ??_SPI1_Open 0004                       ??_INTERRUPT_InterruptManager 0002  
                                      __smallconst 1000                                        _COMSTATbits 003F90  
                                         _CANRXPPS 003AED                   __end_of_convertReg2ExtendedCANid 18F0  
                   convertCANid2Reg@tempPassedInID 0004                                   ??_SPI1_WriteByte 0001  
                             _INTERRUPT_Initialize 1DA4                                           _LATCbits 003FBC  
                                         _PIE0bits 003990                                           _PIE5bits 003995  
                                     _SPI1CON0bits 003D14                                           _PIR0bits 0039A0  
                                         _PIR2bits 0039A2                                           _SPI1BAUD 003D19  
                                         _SPI1CON0 003D14                                           _SPI1CON1 003D15  
                                         _SPI1CON2 003D16                                           _PIR5bits 0039A5  
                                         _RXB0EIDH 003F83                                           _RXB0EIDL 003F84  
                                         _RXB1EIDH 0037F3                                           _RXB1EIDL 0037F4  
                                         _RXB0SIDH 003F81                                           _RXB0SIDL 003F82  
                                         _RXF0EIDH 0037A2                                           _RXB1SIDH 0037F1  
                                         _RXF0EIDL 0037A3                                           _RXB1SIDL 0037F2  
                                         _RXF1EIDH 0037A6                                           _RXF1EIDL 0037A7  
                                         _RXF2EIDH 0037AA                                           _RXF2EIDL 0037AB  
                                         _RXF3EIDH 0037AE                                           _RXF3EIDL 0037AF  
                                         _RXF4EIDH 0037B2                                           _RXF4EIDL 0037B3  
                                         _RXF5EIDH 0037B6                                           _RXF5EIDL 0037B7  
                                         _RXF0SIDH 0037A0                                           _RXF0SIDL 0037A1  
                                         _RXF1SIDH 0037A4                                           _TXB0EIDH 0037E3  
                                         _TXB0EIDL 0037E4                                           _RXF1SIDL 0037A5  
                                         _RXF2SIDH 0037A8                                           _TXB1EIDH 0037D3  
                                         _TXB1EIDL 0037D4                                           _RXF2SIDL 0037A9  
                                         _RXF3SIDH 0037AC                                           _TXB2EIDH 0037C3  
                                         _TXB2EIDL 0037C4                                           _RXF3SIDL 0037AD  
                                         _RXF4SIDH 0037B0                                           _RXF4SIDL 0037B1  
                                         _RXF5SIDH 0037B4                                           _RXF5SIDL 0037B5  
                                         _RXM0EIDH 0037BA                                           _RXM0EIDL 0037BB  
                                         _RXM1EIDH 0037BE                                           _TXB0SIDH 0037E1  
                                         _RXM1EIDL 0037BF                                           _TXB0SIDL 0037E2  
                                         _TXB1SIDH 0037D1                                           _TXB1SIDL 0037D2  
                                         _TXB2SIDH 0037C1                                           _TXB2SIDL 0037C2  
                                         _RXM0SIDH 0037B8                                           _RXM0SIDL 0037B9  
                                         _RXM1SIDH 0037BC                                           _RXM1SIDL 0037BD  
                                ??_PIN_MANAGER_IOC 0002                                       _SPI1INTEbits 003D1B  
                      __end_of_SS_InterruptHandler 1D5A                                   ?_SPI1_Initialize 0001  
                                      _INTCON0bits 003FD2                              ?_INTERRUPT_Initialize 0001  
                         _convertReg2StandardCANid 1C00              convertReg2ExtendedCANid@tempRXBn_EIDH 000C  
            convertReg2ExtendedCANid@tempRXBn_EIDL 0004              convertReg2ExtendedCANid@tempRXBn_SIDH 0005  
            convertReg2ExtendedCANid@tempRXBn_SIDL 0006                                           __Hrparam 0000  
                                         __Lrparam 0000                          convertCANid2Reg@canIdType 0008  
                          ??_OSCILLATOR_Initialize 0004  convertReg2ExtendedCANid@CAN_standardLo_ID_hi3bits 0012  
                                       _ANSELCbits 003A60  convertReg2ExtendedCANid@CAN_standardLo_ID_lo2bits 0011  
                          convertCANid2Reg@wipSIDL 0015                                           __pivt0x8 0008  
                                         __ptext10 1010                                           __ptext11 161E  
                                         __ptext20 1DAE                                           __ptext12 1366  
                                         __ptext21 0000                                           __ptext13 1C00  
                                         __ptext14 17B6                                           __ptext15 1C78  
                                         __ptext16 1D72                                           __ptext17 1CB8  
                                         __ptext18 1DB8                                           __ptext19 1D40  
                     ??_IOCAF5_SetInterruptHandler 0006                                         _IOCAF5_ISR 1CB8  
              convertReg2StandardCANid@ConvertedID 000F                convertReg2ExtendedCANid@returnValue 000D  
                                         isa$xinst 000000                          ?_convertReg2ExtendedCANid 0004  
                                    ?_CAN_transmit 0016                 __end_of_INTERRUPT_InterruptManager 1CB8  
                       _INTERRUPT_InterruptManager 1C78                                        _RXB0CONbits 003F80  
                                      _RXB1CONbits 0037F0                             ??_INTERRUPT_Initialize 0004  
                                         intlevel2 0000                            ?_PIN_MANAGER_Initialize 0001  
                                      _TXB0CONbits 0037E0                                       ?_CAN_receive 0017  
                                      _TXB1CONbits 0037D0                                        _TXB2CONbits 0037C0  
                                   ??_CAN_transmit 0018                                  ?_convertCANid2Reg 0004  
                                       _SPI1SCKPPS 003AE0                                         _SPI1SDIPPS 003AE1  
                               ??_convertCANid2Reg 0011                                        ?_IOCAF5_ISR 0001  
                   __end_of_PIN_MANAGER_Initialize 1C00                                    _PIN_MANAGER_IOC 1D72  
                       __end_of_spi1_configuration 100B  
